(lp1
(dp2
S'643'
p3
I1587
sS'592'
p4
I1538
sS'344'
p5
I0
sS'345'
p6
I1
sS'346'
p7
I2
sS'347'
p8
I3
sS'340'
p9
I4
sS'341'
p10
I5
sS'342'
p11
I6
sS'343'
p12
I7
sS'348'
p13
I8
sS'349'
p14
I9
sS'594'
p15
I1540
sS'298'
p16
I11
sS'299'
p17
I12
sS'296'
p18
I13
sS'297'
p19
I14
sS'294'
p20
I15
sS'295'
p21
I16
sS'292'
p22
I17
sS'293'
p23
I18
sS'290'
p24
I19
sS'291'
p25
I20
sS'270'
p26
I21
sS'271'
p27
I22
sS'272'
p28
I23
sS'273'
p29
I24
sS'274'
p30
I25
sS'275'
p31
I26
sS'276'
p32
I27
sS'277'
p33
I28
sS'278'
p34
I29
sS'279'
p35
I30
sS'642'
p36
I1588
sS'1781'
p37
I32
sS'108'
p38
I33
sS'109'
p39
I34
sS'102'
p40
I35
sS'103'
p41
I36
sS'100'
p42
I37
sS'101'
p43
I38
sS'106'
p44
I39
sS'107'
p45
I40
sS'104'
p46
I41
sS'105'
p47
I42
sS'1212'
p48
I831
sS'1213'
p49
I832
sS'99'
p50
I49
sS'98'
p51
I50
sS'91'
p52
I51
sS'90'
p53
I52
sS'93'
p54
I53
sS'92'
p55
I54
sS'95'
p56
I55
sS'94'
p57
I56
sS'97'
p58
I57
sS'96'
p59
I58
sS'1623'
p60
I59
sS'1990'
p61
I503
sS'1993'
p62
I505
sS'1620'
p63
I62
sS'1627'
p64
I63
sS'1994'
p65
I517
sS'1625'
p66
I65
sS'1996'
p67
I528
sS'1999'
p68
I67
sS'1998'
p69
I68
sS'1629'
p70
I69
sS'1628'
p71
I534
sS'559'
p72
I71
sS'558'
p73
I72
sS'1217'
p74
I836
sS'555'
p75
I73
sS'554'
p76
I74
sS'557'
p77
I75
sS'556'
p78
I76
sS'551'
p79
I77
sS'550'
p80
I78
sS'553'
p81
I79
sS'552'
p82
I80
sS'1199'
p83
I82
sS'1198'
p84
I83
sS'1191'
p85
I84
sS'1190'
p86
I85
sS'1193'
p87
I86
sS'1192'
p88
I87
sS'1195'
p89
I88
sS'1194'
p90
I89
sS'1197'
p91
I90
sS'1196'
p92
I91
sS'1759'
p93
I92
sS'1758'
p94
I93
sS'1757'
p95
I94
sS'1756'
p96
I95
sS'1755'
p97
I96
sS'1754'
p98
I97
sS'1753'
p99
I98
sS'1752'
p100
I99
sS'1751'
p101
I100
sS'1750'
p102
I101
sS'1177'
p103
I102
sS'1176'
p104
I103
sS'1175'
p105
I104
sS'1174'
p106
I105
sS'1173'
p107
I106
sS'1172'
p108
I107
sS'1171'
p109
I108
sS'1170'
p110
I109
sS'1179'
p111
I110
sS'1178'
p112
I111
sS'511'
p113
I112
sS'510'
p114
I113
sS'513'
p115
I114
sS'644'
p116
I1590
sS'1285'
p117
I115
sS'1284'
p118
I116
sS'1287'
p119
I117
sS'512'
p120
I118
sS'1281'
p121
I119
sS'1280'
p122
I120
sS'1283'
p123
I121
sS'1282'
p124
I122
sS'1003'
p125
I123
sS'879'
p126
I124
sS'1289'
p127
I125
sS'1288'
p128
I126
sS'514'
p129
I127
sS'1579'
p130
I128
sS'1578'
p131
I129
sS'689'
p132
I130
sS'688'
p133
I131
sS'685'
p134
I132
sS'684'
p135
I133
sS'687'
p136
I134
sS'686'
p137
I135
sS'681'
p138
I136
sS'680'
p139
I137
sS'683'
p140
I138
sS'682'
p141
I139
sS'623'
p142
I693
sS'1226'
p143
I141
sS'621'
p144
I142
sS'873'
p145
I143
sS'1224'
p146
I144
sS'1223'
p147
I145
sS'1222'
p148
I146
sS'1221'
p149
I147
sS'624'
p150
I700
sS'407'
p151
I149
sS'406'
p152
I150
sS'405'
p153
I151
sS'404'
p154
I152
sS'1375'
p155
I46
sS'1374'
p156
I48
sS'1377'
p157
I70
sS'400'
p158
I156
sS'1379'
p159
I157
sS'1378'
p160
I158
sS'452'
p161
I1704
sS'409'
p162
I160
sS'408'
p163
I161
sS'1343'
p164
I1705
sS'1344'
p165
I1706
sS'1345'
p166
I1707
sS'456'
p167
I1708
sS'457'
p168
I1709
sS'379'
p169
I167
sS'378'
p170
I168
sS'647'
p171
I1591
sS'371'
p172
I169
sS'370'
p173
I170
sS'373'
p174
I171
sS'372'
p175
I172
sS'375'
p176
I173
sS'374'
p177
I174
sS'377'
p178
I175
sS'376'
p179
I176
sS'393'
p180
I177
sS'392'
p181
I178
sS'391'
p182
I179
sS'390'
p183
I180
sS'397'
p184
I181
sS'396'
p185
I182
sS'395'
p186
I183
sS'394'
p187
I184
sS'399'
p188
I185
sS'398'
p189
I186
sS'1246'
p190
I1592
sS'245'
p191
I188
sS'244'
p192
I189
sS'247'
p193
I190
sS'246'
p194
I191
sS'241'
p195
I192
sS'240'
p196
I193
sS'243'
p197
I194
sS'242'
p198
I195
sS'249'
p199
I196
sS'248'
p200
I197
sS'179'
p201
I198
sS'178'
p202
I199
sS'177'
p203
I200
sS'176'
p204
I201
sS'175'
p205
I202
sS'174'
p206
I203
sS'173'
p207
I204
sS'172'
p208
I205
sS'171'
p209
I206
sS'170'
p210
I207
sS'656'
p211
I1710
sS'657'
p212
I1711
sS'654'
p213
I1712
sS'655'
p214
I1713
sS'652'
p215
I1714
sS'653'
p216
I1715
sS'650'
p217
I1716
sS'651'
p218
I1717
sS'1364'
p219
I1990
sS'1977'
p220
I218
sS'1976'
p221
I219
sS'1975'
p222
I221
sS'1365'
p223
I1991
sS'1974'
p224
I222
sS'1973'
p225
I223
sS'1972'
p226
I224
sS'1971'
p227
I225
sS'1970'
p228
I226
sS'1362'
p229
I1992
sS'1968'
p230
I227
sS'1969'
p231
I228
sS'1618'
p232
I229
sS'1619'
p233
I230
sS'1616'
p234
I231
sS'1617'
p235
I232
sS'1614'
p236
I233
sS'1615'
p237
I234
sS'1960'
p238
I580
sS'1961'
p239
I581
sS'1610'
p240
I237
sS'1611'
p241
I238
sS'1363'
p242
I1993
sS'1768'
p243
I240
sS'1769'
p244
I241
sS'1762'
p245
I242
sS'1763'
p246
I243
sS'1760'
p247
I244
sS'1761'
p248
I245
sS'1766'
p249
I246
sS'1767'
p250
I247
sS'1764'
p251
I248
sS'1765'
p252
I249
sS'1142'
p253
I250
sS'1143'
p254
I251
sS'1140'
p255
I252
sS'1141'
p256
I253
sS'1146'
p257
I254
sS'1147'
p258
I255
sS'1144'
p259
I256
sS'1145'
p260
I257
sS'1148'
p261
I258
sS'1149'
p262
I259
sS'769'
p263
I1377
sS'692'
p264
I260
sS'693'
p265
I261
sS'1544'
p266
I480
sS'1545'
p267
I501
sS'696'
p268
I264
sS'697'
p269
I265
sS'694'
p270
I266
sS'695'
p271
I267
sS'698'
p272
I268
sS'699'
p273
I269
sS'1548'
p274
I270
sS'1549'
p275
I271
sS'542'
p276
I272
sS'543'
p277
I273
sS'540'
p278
I274
sS'541'
p279
I275
sS'546'
p280
I276
sS'547'
p281
I277
sS'544'
p282
I278
sS'545'
p283
I279
sS'548'
p284
I280
sS'549'
p285
I281
sS'760'
p286
I1380
sS'761'
p287
I1381
sS'766'
p288
I1382
sS'767'
p289
I1383
sS'764'
p290
I1384
sS'1787'
p291
I287
sS'414'
p292
I288
sS'415'
p293
I289
sS'416'
p294
I290
sS'417'
p295
I291
sS'410'
p296
I292
sS'411'
p297
I293
sS'412'
p298
I294
sS'413'
p299
I295
sS'1384'
p300
I296
sS'1385'
p301
I297
sS'1386'
p302
I298
sS'1387'
p303
I299
sS'418'
p304
I300
sS'419'
p305
I301
sS'1382'
p306
I302
sS'1383'
p307
I303
sS'1254'
p308
I1450
sS'368'
p309
I304
sS'369'
p310
I305
sS'366'
p311
I306
sS'367'
p312
I307
sS'364'
p313
I308
sS'365'
p314
I309
sS'362'
p315
I310
sS'363'
p316
I311
sS'360'
p317
I312
sS'361'
p318
I313
sS'380'
p319
I314
sS'381'
p320
I315
sS'382'
p321
I316
sS'383'
p322
I317
sS'384'
p323
I318
sS'385'
p324
I319
sS'386'
p325
I320
sS'387'
p326
I321
sS'388'
p327
I322
sS'389'
p328
I323
sS'1253'
p329
I1453
sS'258'
p330
I324
sS'259'
p331
I325
sS'252'
p332
I326
sS'253'
p333
I327
sS'250'
p334
I328
sS'251'
p335
I329
sS'256'
p336
I330
sS'257'
p337
I331
sS'254'
p338
I332
sS'255'
p339
I333
sS'900'
p340
I1029
sS'901'
p341
I1030
sS'168'
p342
I337
sS'169'
p343
I338
sS'164'
p344
I339
sS'165'
p345
I340
sS'166'
p346
I341
sS'167'
p347
I342
sS'160'
p348
I343
sS'161'
p349
I344
sS'162'
p350
I345
sS'163'
p351
I346
sS'908'
p352
I1037
sS'909'
p353
I1038
sS'1090'
p354
I1412
sS'1091'
p355
I1413
sS'1814'
p356
I352
sS'1815'
p357
I353
sS'1816'
p358
I354
sS'1817'
p359
I355
sS'1810'
p360
I356
sS'1811'
p361
I357
sS'1812'
p362
I358
sS'1813'
p363
I359
sS'1818'
p364
I360
sS'1819'
p365
I361
sS'1098'
p366
I1420
sS'1099'
p367
I1421
sS'1609'
p368
I364
sS'1608'
p369
I365
sS'1979'
p370
I366
sS'1978'
p371
I367
sS'1601'
p372
I368
sS'1600'
p373
I369
sS'1603'
p374
I370
sS'1602'
p375
I371
sS'1605'
p376
I372
sS'1604'
p377
I373
sS'1607'
p378
I374
sS'1606'
p379
I375
sS'809'
p380
I376
sS'808'
p381
I377
sS'803'
p382
I378
sS'802'
p383
I379
sS'801'
p384
I380
sS'800'
p385
I381
sS'807'
p386
I382
sS'806'
p387
I383
sS'805'
p388
I384
sS'804'
p389
I385
sS'1775'
p390
I386
sS'1774'
p391
I387
sS'1777'
p392
I388
sS'1776'
p393
I389
sS'1771'
p394
I390
sS'1770'
p395
I391
sS'1773'
p396
I392
sS'1772'
p397
I393
sS'1779'
p398
I394
sS'1778'
p399
I395
sS'608'
p400
I396
sS'1159'
p401
I397
sS'1158'
p402
I398
sS'1155'
p403
I399
sS'1154'
p404
I400
sS'1157'
p405
I401
sS'1156'
p406
I402
sS'1151'
p407
I403
sS'1150'
p408
I404
sS'1153'
p409
I405
sS'1152'
p410
I406
sS'1555'
p411
I407
sS'1554'
p412
I408
sS'1551'
p413
I409
sS'1550'
p414
I410
sS'1553'
p415
I411
sS'1552'
p416
I412
sS'59'
p417
I413
sS'58'
p418
I414
sS'1557'
p419
I415
sS'1556'
p420
I416
sS'1559'
p421
I1194
sS'54'
p422
I418
sS'57'
p423
I419
sS'56'
p424
I420
sS'51'
p425
I421
sS'50'
p426
I422
sS'53'
p427
I423
sS'52'
p428
I424
sS'537'
p429
I425
sS'55'
p430
I417
sS'535'
p431
I427
sS'534'
p432
I428
sS'533'
p433
I429
sS'532'
p434
I430
sS'531'
p435
I431
sS'530'
p436
I432
sS'539'
p437
I433
sS'538'
p438
I434
sS'1558'
p439
I435
sS'536'
p440
I426
sS'429'
p441
I436
sS'428'
p442
I437
sS'1399'
p443
I438
sS'1398'
p444
I439
sS'1397'
p445
I507
sS'1396'
p446
I513
sS'1395'
p447
I516
sS'1394'
p448
I521
sS'1393'
p449
I527
sS'1392'
p450
I529
sS'1391'
p451
I530
sS'1390'
p452
I531
sS'1443'
p453
I1478
sS'229'
p454
I448
sS'228'
p455
I449
sS'227'
p456
I450
sS'226'
p457
I451
sS'225'
p458
I452
sS'224'
p459
I453
sS'223'
p460
I454
sS'222'
p461
I455
sS'221'
p462
I456
sS'220'
p463
I457
sS'151'
p464
I458
sS'150'
p465
I459
sS'153'
p466
I460
sS'152'
p467
I461
sS'155'
p468
I462
sS'154'
p469
I463
sS'157'
p470
I464
sS'156'
p471
I465
sS'159'
p472
I466
sS'158'
p473
I467
sS'1293'
p474
I1970
sS'1162'
p475
I1950
sS'1807'
p476
I468
sS'1806'
p477
I469
sS'1805'
p478
I470
sS'1804'
p479
I471
sS'1803'
p480
I472
sS'1802'
p481
I473
sS'1801'
p482
I474
sS'1800'
p483
I475
sS'1809'
p484
I476
sS'1808'
p485
I477
sS'1256'
p486
I1448
sS'1948'
p487
I479
sS'1949'
p488
I1026
sS'1257'
p489
I1449
sS'1942'
p490
I482
sS'1943'
p491
I483
sS'1940'
p492
I484
sS'1941'
p493
I485
sS'1946'
p494
I486
sS'1947'
p495
I1043
sS'1944'
p496
I488
sS'1945'
p497
I489
sS'818'
p498
I490
sS'819'
p499
I491
sS'1255'
p500
I1451
sS'810'
p501
I493
sS'811'
p502
I494
sS'812'
p503
I495
sS'813'
p504
I496
sS'814'
p505
I497
sS'815'
p506
I498
sS'816'
p507
I499
sS'817'
p508
I500
sS'1991'
p509
I1610
sS'1250'
p510
I1454
sS'1622'
p511
I60
sS'1251'
p512
I1455
sS'1621'
p513
I61
sS'1490'
p514
I506
sS'421'
p515
I440
sS'1492'
p516
I508
sS'1493'
p517
I509
sS'1494'
p518
I510
sS'1495'
p519
I511
sS'1496'
p520
I512
sS'1497'
p521
I1130
sS'1498'
p522
I514
sS'1499'
p523
I515
sS'423'
p524
I442
sS'1626'
p525
I64
sS'1700'
p526
I518
sS'1701'
p527
I519
sS'1702'
p528
I520
sS'1703'
p529
I1153
sS'1704'
p530
I522
sS'1705'
p531
I523
sS'1706'
p532
I524
sS'1707'
p533
I525
sS'1708'
p534
I526
sS'1709'
p535
I1155
sS'1624'
p536
I66
sS'424'
p537
I445
sS'427'
p538
I446
sS'426'
p539
I447
sS'1128'
p540
I532
sS'1129'
p541
I533
sS'1120'
p542
I535
sS'1121'
p543
I536
sS'1122'
p544
I537
sS'1123'
p545
I538
sS'1124'
p546
I539
sS'1125'
p547
I540
sS'1126'
p548
I541
sS'1127'
p549
I542
sS'524'
p550
I543
sS'525'
p551
I544
sS'526'
p552
I545
sS'527'
p553
I546
sS'520'
p554
I547
sS'521'
p555
I548
sS'522'
p556
I549
sS'523'
p557
I550
sS'1014'
p558
I551
sS'1015'
p559
I552
sS'1016'
p560
I553
sS'1017'
p561
I554
sS'528'
p562
I555
sS'529'
p563
I556
sS'1012'
p564
I557
sS'1013'
p565
I558
sS'1234'
p566
I559
sS'1235'
p567
I560
sS'1236'
p568
I561
sS'1237'
p569
I562
sS'1230'
p570
I563
sS'1231'
p571
I564
sS'1232'
p572
I565
sS'1233'
p573
I566
sS'1238'
p574
I567
sS'1239'
p575
I568
sS'438'
p576
I569
sS'439'
p577
I570
sS'436'
p578
I571
sS'437'
p579
I572
sS'434'
p580
I573
sS'435'
p581
I574
sS'432'
p582
I575
sS'433'
p583
I576
sS'430'
p584
I577
sS'431'
p585
I578
sS'1630'
p586
I1896
sS'238'
p587
I582
sS'239'
p588
I583
sS'234'
p589
I584
sS'235'
p590
I585
sS'236'
p591
I586
sS'237'
p592
I587
sS'230'
p593
I588
sS'231'
p594
I589
sS'232'
p595
I590
sS'233'
p596
I591
sS'1'
I592
sS'146'
p597
I593
sS'147'
p598
I594
sS'144'
p599
I595
sS'145'
p600
I596
sS'142'
p601
I597
sS'143'
p602
I598
sS'140'
p603
I599
sS'141'
p604
I600
sS'148'
p605
I601
sS'149'
p606
I602
sS'123'
p607
I1753
sS'1832'
p608
I603
sS'1833'
p609
I604
sS'1830'
p610
I605
sS'1831'
p611
I606
sS'1836'
p612
I607
sS'1837'
p613
I608
sS'1834'
p614
I609
sS'1835'
p615
I610
sS'1838'
p616
I611
sS'1839'
p617
I612
sS'939'
p618
I613
sS'938'
p619
I614
sS'933'
p620
I615
sS'932'
p621
I616
sS'931'
p622
I617
sS'930'
p623
I618
sS'937'
p624
I619
sS'936'
p625
I620
sS'935'
p626
I621
sS'934'
p627
I622
sS'1955'
p628
I623
sS'1954'
p629
I624
sS'1957'
p630
I625
sS'1956'
p631
I626
sS'1951'
p632
I627
sS'1950'
p633
I628
sS'1953'
p634
I629
sS'1952'
p635
I630
sS'1959'
p636
I631
sS'1958'
p637
I632
sS'829'
p638
I633
sS'828'
p639
I634
sS'825'
p640
I635
sS'824'
p641
I636
sS'827'
p642
I637
sS'826'
p643
I638
sS'821'
p644
I639
sS'820'
p645
I640
sS'823'
p646
I641
sS'822'
p647
I642
sS'1483'
p648
I644
sS'1482'
p649
I645
sS'1481'
p650
I646
sS'1480'
p651
I647
sS'1487'
p652
I648
sS'1486'
p653
I649
sS'1485'
p654
I650
sS'1484'
p655
I651
sS'1489'
p656
I652
sS'1488'
p657
I653
sS'797'
p658
I654
sS'796'
p659
I655
sS'795'
p660
I656
sS'794'
p661
I657
sS'793'
p662
I658
sS'792'
p663
I659
sS'791'
p664
I660
sS'790'
p665
I661
sS'1719'
p666
I662
sS'1718'
p667
I663
sS'799'
p668
I664
sS'798'
p669
I665
sS'612'
p670
I1101
sS'613'
p671
I1102
sS'610'
p672
I1103
sS'1139'
p673
I669
sS'1138'
p674
I670
sS'1133'
p675
I671
sS'1132'
p676
I672
sS'1131'
p677
I673
sS'1130'
p678
I674
sS'1137'
p679
I675
sS'1136'
p680
I676
sS'1135'
p681
I677
sS'1134'
p682
I678
sS'614'
p683
I1107
sS'1277'
p684
I680
sS'519'
p685
I681
sS'518'
p686
I682
sS'1009'
p687
I683
sS'1008'
p688
I684
sS'1007'
p689
I685
sS'1006'
p690
I686
sS'1005'
p691
I687
sS'1004'
p692
I688
sS'515'
p693
I689
sS'1002'
p694
I690
sS'1001'
p695
I44
sS'1000'
p696
I692
sS'1227'
p697
I217
sS'622'
p698
I694
sS'1225'
p699
I695
sS'620'
p700
I696
sS'627'
p701
I697
sS'626'
p702
I698
sS'625'
p703
I699
sS'1220'
p704
I148
sS'629'
p705
I701
sS'628'
p706
I702
sS'1229'
p707
I703
sS'1228'
p708
I704
sS'2'
I706
sS'1286'
p709
I707
sS'11'
p710
I708
sS'10'
p711
I709
sS'13'
p712
I710
sS'12'
p713
I711
sS'15'
p714
I712
sS'14'
p715
I713
sS'17'
p716
I714
sS'16'
p717
I715
sS'19'
p718
I716
sS'18'
p719
I717
sS'201'
p720
I719
sS'200'
p721
I720
sS'203'
p722
I721
sS'202'
p723
I722
sS'205'
p724
I723
sS'204'
p725
I724
sS'207'
p726
I725
sS'206'
p727
I726
sS'209'
p728
I727
sS'208'
p729
I728
sS'1573'
p730
I729
sS'1572'
p731
I730
sS'1571'
p732
I731
sS'1570'
p733
I732
sS'1577'
p734
I733
sS'1576'
p735
I734
sS'1575'
p736
I735
sS'1574'
p737
I736
sS'1829'
p738
I737
sS'1828'
p739
I738
sS'1825'
p740
I739
sS'1824'
p741
I740
sS'1827'
p742
I741
sS'1826'
p743
I742
sS'1821'
p744
I743
sS'1820'
p745
I744
sS'1823'
p746
I745
sS'1822'
p747
I746
sS'928'
p748
I747
sS'929'
p749
I748
sS'920'
p750
I749
sS'921'
p751
I750
sS'922'
p752
I751
sS'923'
p753
I752
sS'924'
p754
I753
sS'925'
p755
I754
sS'926'
p756
I755
sS'927'
p757
I756
sS'1920'
p758
I757
sS'1921'
p759
I758
sS'1922'
p760
I759
sS'1923'
p761
I760
sS'1924'
p762
I761
sS'1925'
p763
I762
sS'1926'
p764
I763
sS'1927'
p765
I764
sS'1928'
p766
I765
sS'1929'
p767
I766
sS'832'
p768
I767
sS'833'
p769
I768
sS'830'
p770
I769
sS'831'
p771
I770
sS'836'
p772
I771
sS'837'
p773
I772
sS'834'
p774
I773
sS'835'
p775
I774
sS'838'
p776
I775
sS'839'
p777
I776
sS'3'
I777
sS'784'
p778
I781
sS'785'
p779
I782
sS'786'
p780
I783
sS'787'
p781
I784
sS'780'
p782
I785
sS'781'
p783
I786
sS'782'
p784
I787
sS'783'
p785
I788
sS'1726'
p786
I789
sS'1727'
p787
I790
sS'1724'
p788
I791
sS'1725'
p789
I792
sS'788'
p790
I793
sS'789'
p791
I794
sS'1720'
p792
I795
sS'1721'
p793
I796
sS'60'
p794
I797
sS'61'
p795
I798
sS'62'
p796
I799
sS'63'
p797
I800
sS'64'
p798
I801
sS'65'
p799
I802
sS'66'
p800
I803
sS'67'
p801
I804
sS'68'
p802
I805
sS'69'
p803
I806
sS'1371'
p804
I807
sS'1588'
p805
I808
sS'1589'
p806
I809
sS'1370'
p807
I810
sS'1582'
p808
I811
sS'1583'
p809
I812
sS'1580'
p810
I813
sS'1581'
p811
I814
sS'1586'
p812
I815
sS'1373'
p813
I816
sS'1584'
p814
I817
sS'1585'
p815
I818
sS'1038'
p816
I819
sS'1372'
p817
I43
sS'508'
p818
I821
sS'509'
p819
I822
sS'1032'
p820
I823
sS'507'
p821
I824
sS'504'
p822
I945
sS'505'
p823
I826
sS'502'
p824
I827
sS'503'
p825
I828
sS'500'
p826
I829
sS'402'
p827
I154
sS'630'
p828
I1318
sS'631'
p829
I1319
sS'632'
p830
I833
sS'633'
p831
I834
sS'1216'
p832
I835
sS'401'
p833
I155
sS'636'
p834
I837
sS'637'
p835
I838
sS'638'
p836
I839
sS'639'
p837
I840
sS'1218'
p838
I841
sS'1219'
p839
I842
sS'1728'
p840
I844
sS'1729'
p841
I845
sS'1454'
p842
I1018
sS'1455'
p843
I1019
sS'1456'
p844
I1020
sS'1105'
p845
I849
sS'1450'
p846
I1022
sS'1103'
p847
I851
sS'1452'
p848
I1024
sS'1453'
p849
I1025
sS'1458'
p850
I854
sS'1459'
p851
I855
sS'1108'
p852
I856
sS'1109'
p853
I857
sS'1722'
p854
I858
sS'1723'
p855
I859
sS'216'
p856
I862
sS'217'
p857
I863
sS'214'
p858
I864
sS'215'
p859
I865
sS'212'
p860
I866
sS'213'
p861
I867
sS'210'
p862
I868
sS'211'
p863
I869
sS'218'
p864
I871
sS'219'
p865
I872
sS'462'
p866
I1817
sS'4'
I873
sS'1858'
p867
I874
sS'1859'
p868
I875
sS'1850'
p869
I876
sS'1851'
p870
I877
sS'1852'
p871
I878
sS'1853'
p872
I879
sS'1854'
p873
I880
sS'1855'
p874
I881
sS'1856'
p875
I882
sS'1857'
p876
I883
sS'919'
p877
I884
sS'918'
p878
I885
sS'915'
p879
I886
sS'914'
p880
I887
sS'917'
p881
I888
sS'916'
p882
I889
sS'911'
p883
I890
sS'910'
p884
I891
sS'913'
p885
I892
sS'912'
p886
I893
sS'516'
p887
I1721
sS'1423'
p888
I1788
sS'1933'
p889
I894
sS'1932'
p890
I895
sS'1931'
p891
I896
sS'1930'
p892
I897
sS'1937'
p893
I898
sS'1936'
p894
I899
sS'1935'
p895
I900
sS'1934'
p896
I901
sS'1939'
p897
I902
sS'1938'
p898
I903
sS'847'
p899
I904
sS'846'
p900
I905
sS'845'
p901
I906
sS'844'
p902
I907
sS'843'
p903
I908
sS'842'
p904
I909
sS'841'
p905
I910
sS'840'
p906
I911
sS'849'
p907
I912
sS'848'
p908
I913
sS'459'
p909
I1701
sS'1587'
p910
I915
sS'1739'
p911
I916
sS'1738'
p912
I917
sS'1731'
p913
I918
sS'1730'
p914
I919
sS'1733'
p915
I920
sS'1732'
p916
I921
sS'662'
p917
I922
sS'1734'
p918
I923
sS'1737'
p919
I924
sS'1736'
p920
I925
sS'1039'
p921
I820
sS'753'
p922
I926
sS'752'
p923
I927
sS'751'
p924
I928
sS'750'
p925
I929
sS'757'
p926
I930
sS'756'
p927
I931
sS'755'
p928
I932
sS'754'
p929
I933
sS'759'
p930
I934
sS'758'
p931
I935
sS'1595'
p932
I936
sS'506'
p933
I937
sS'1597'
p934
I938
sS'1596'
p935
I939
sS'1591'
p936
I940
sS'1590'
p937
I941
sS'1593'
p938
I942
sS'1033'
p939
I943
sS'1599'
p940
I944
sS'1030'
p941
I825
sS'1025'
p942
I946
sS'1024'
p943
I947
sS'1027'
p944
I948
sS'1031'
p945
I949
sS'1021'
p946
I950
sS'1020'
p947
I951
sS'1023'
p948
I952
sS'1022'
p949
I953
sS'1036'
p950
I954
sS'1029'
p951
I955
sS'1028'
p952
I956
sS'1037'
p953
I957
sS'1034'
p954
I958
sS'501'
p955
I830
sS'605'
p956
I960
sS'604'
p957
I961
sS'607'
p958
I962
sS'606'
p959
I963
sS'601'
p960
I964
sS'600'
p961
I965
sS'603'
p962
I966
sS'602'
p963
I967
sS'1205'
p964
I968
sS'1204'
p965
I969
sS'1207'
p966
I970
sS'1206'
p967
I971
sS'609'
p968
I972
sS'1210'
p969
I45
sS'1203'
p970
I974
sS'1202'
p971
I975
sS'1211'
p972
I976
sS'634'
p973
I977
sS'635'
p974
I978
sS'1214'
p975
I979
sS'1215'
p976
I980
sS'1111'
p977
I981
sS'1110'
p978
I982
sS'1113'
p979
I983
sS'1112'
p980
I984
sS'1115'
p981
I985
sS'1114'
p982
I986
sS'1117'
p983
I987
sS'1440'
p984
I1496
sS'1119'
p985
I989
sS'1118'
p986
I990
sS'1351'
p987
I1812
sS'1449'
p988
I992
sS'1448'
p989
I993
sS'1350'
p990
I1813
sS'461'
p991
I1814
sS'1356'
p992
I1815
sS'463'
p993
I1816
sS'489'
p994
I998
sS'488'
p995
I999
sS'487'
p996
I1000
sS'486'
p997
I1001
sS'485'
p998
I1002
sS'1354'
p999
I1003
sS'483'
p1000
I1004
sS'482'
p1001
I1005
sS'481'
p1002
I1006
sS'480'
p1003
I1007
sS'199'
p1004
I1008
sS'198'
p1005
I1009
sS'195'
p1006
I1010
sS'194'
p1007
I1011
sS'197'
p1008
I1012
sS'196'
p1009
I1013
sS'191'
p1010
I1014
sS'190'
p1011
I1015
sS'193'
p1012
I1016
sS'192'
p1013
I1017
sS'1106'
p1014
I846
sS'1107'
p1015
I847
sS'1274'
p1016
I1825
sS'1104'
p1017
I848
sS'1457'
p1018
I1021
sS'1102'
p1019
I850
sS'1451'
p1020
I1023
sS'1100'
p1021
I852
sS'1101'
p1022
I853
sS'902'
p1023
I1027
sS'903'
p1024
I1028
sS'1849'
p1025
I335
sS'1848'
p1026
I336
sS'906'
p1027
I1031
sS'907'
p1028
I1032
sS'904'
p1029
I1033
sS'905'
p1030
I1034
sS'1843'
p1031
I1035
sS'1842'
p1032
I347
sS'1841'
p1033
I348
sS'1840'
p1034
I349
sS'1847'
p1035
I1039
sS'1846'
p1036
I1040
sS'1845'
p1037
I1041
sS'1844'
p1038
I1042
sS'1908'
p1039
I1044
sS'1909'
p1040
I1045
sS'1906'
p1041
I1046
sS'1907'
p1042
I1047
sS'1904'
p1043
I1048
sS'1905'
p1044
I1049
sS'1902'
p1045
I1050
sS'1903'
p1046
I1051
sS'1900'
p1047
I1052
sS'1901'
p1048
I1053
sS'854'
p1049
I1054
sS'855'
p1050
I1055
sS'856'
p1051
I1056
sS'857'
p1052
I1057
sS'850'
p1053
I1058
sS'851'
p1054
I1059
sS'852'
p1055
I1060
sS'853'
p1056
I1061
sS'858'
p1057
I1062
sS'859'
p1058
I1063
sS'6'
I1064
sS'425'
p1059
I444
sS'740'
p1060
I1065
sS'741'
p1061
I1066
sS'742'
p1062
I1067
sS'743'
p1063
I1068
sS'744'
p1064
I1069
sS'745'
p1065
I1070
sS'746'
p1066
I1071
sS'747'
p1067
I1072
sS'748'
p1068
I1073
sS'749'
p1069
I1074
sS'1050'
p1070
I1076
sS'1051'
p1071
I1077
sS'1052'
p1072
I1078
sS'1053'
p1073
I1079
sS'1054'
p1074
I1080
sS'1055'
p1075
I1081
sS'1056'
p1076
I1082
sS'1057'
p1077
I1083
sS'1058'
p1078
I1084
sS'1059'
p1079
I1085
sS'1696'
p1080
I1086
sS'1697'
p1081
I1087
sS'1694'
p1082
I1088
sS'1695'
p1083
I1089
sS'1692'
p1084
I1090
sS'1693'
p1085
I1091
sS'1690'
p1086
I1092
sS'1691'
p1087
I1093
sS'715'
p1088
I1507
sS'1698'
p1089
I1095
sS'1699'
p1090
I1096
sS'1278'
p1091
I1097
sS'1279'
p1092
I1098
sS'618'
p1093
I1099
sS'619'
p1094
I1100
sS'1270'
p1095
I666
sS'1271'
p1096
I667
sS'1272'
p1097
I668
sS'611'
p1098
I1104
sS'616'
p1099
I1105
sS'617'
p1100
I1106
sS'1276'
p1101
I679
sS'615'
p1102
I1108
sS'711'
p1103
I1511
sS'710'
p1104
I1512
sS'1491'
p1105
I1111
sS'1472'
p1106
I1112
sS'1473'
p1107
I1113
sS'1470'
p1108
I1114
sS'1471'
p1109
I1115
sS'1476'
p1110
I1116
sS'1477'
p1111
I1117
sS'1474'
p1112
I1118
sS'1475'
p1113
I1119
sS'1478'
p1114
I1120
sS'1479'
p1115
I1121
sS'1304'
p1116
I1122
sS'1305'
p1117
I1123
sS'1306'
p1118
I1124
sS'1307'
p1119
I1125
sS'1300'
p1120
I1126
sS'1301'
p1121
I1127
sS'1302'
p1122
I1128
sS'1303'
p1123
I1129
sS'1308'
p1124
I1131
sS'1309'
p1125
I1132
sS'498'
p1126
I1133
sS'499'
p1127
I1134
sS'494'
p1128
I1135
sS'495'
p1129
I1136
sS'496'
p1130
I1137
sS'497'
p1131
I1138
sS'490'
p1132
I1139
sS'491'
p1133
I1140
sS'492'
p1134
I1141
sS'493'
p1135
I1142
sS'24'
p1136
I1143
sS'25'
p1137
I1144
sS'26'
p1138
I1145
sS'27'
p1139
I1146
sS'20'
p1140
I1147
sS'21'
p1141
I1148
sS'22'
p1142
I1149
sS'23'
p1143
I1150
sS'28'
p1144
I1151
sS'29'
p1145
I1152
sS'7'
I1156
sS'446'
p1146
I1568
sS'591'
p1147
I1535
sS'590'
p1148
I1536
sS'593'
p1149
I1537
sS'1876'
p1150
I1162
sS'1877'
p1151
I1163
sS'1874'
p1152
I1164
sS'1875'
p1153
I1154
sS'1872'
p1154
I1166
sS'1873'
p1155
I1167
sS'1870'
p1156
I1168
sS'1871'
p1157
I1169
sS'595'
p1158
I1539
sS'1878'
p1159
I1171
sS'1879'
p1160
I1157
sS'977'
p1161
I1173
sS'976'
p1162
I1174
sS'975'
p1163
I1175
sS'974'
p1164
I1176
sS'973'
p1165
I1177
sS'972'
p1166
I1158
sS'971'
p1167
I1179
sS'970'
p1168
I1180
sS'596'
p1169
I1542
sS'979'
p1170
I1182
sS'978'
p1171
I1183
sS'182'
p1172
I1184
sS'183'
p1173
I1185
sS'180'
p1174
I1186
sS'181'
p1175
I1187
sS'186'
p1176
I1188
sS'187'
p1177
I1189
sS'184'
p1178
I1190
sS'185'
p1179
I1191
sS'188'
p1180
I1192
sS'189'
p1181
I1193
sS'1919'
p1182
I1195
sS'1918'
p1183
I1196
sS'1911'
p1184
I1198
sS'1910'
p1185
I1199
sS'1913'
p1186
I1200
sS'1912'
p1187
I1201
sS'1915'
p1188
I1202
sS'1914'
p1189
I1203
sS'1917'
p1190
I1204
sS'1916'
p1191
I1205
sS'869'
p1192
I1206
sS'868'
p1193
I1207
sS'861'
p1194
I1208
sS'860'
p1195
I1209
sS'863'
p1196
I1210
sS'862'
p1197
I1211
sS'865'
p1198
I1212
sS'864'
p1199
I1213
sS'867'
p1200
I1214
sS'866'
p1201
I1215
sS'883'
p1202
I1216
sS'882'
p1203
I1217
sS'881'
p1204
I1218
sS'880'
p1205
I1219
sS'887'
p1206
I1220
sS'886'
p1207
I1221
sS'885'
p1208
I1222
sS'884'
p1209
I1223
sS'889'
p1210
I1224
sS'888'
p1211
I1225
sS'775'
p1212
I1226
sS'774'
p1213
I1227
sS'777'
p1214
I1228
sS'776'
p1215
I1229
sS'771'
p1216
I1230
sS'770'
p1217
I1231
sS'773'
p1218
I1232
sS'772'
p1219
I1233
sS'779'
p1220
I1234
sS'778'
p1221
I1235
sS'77'
p1222
I1236
sS'76'
p1223
I1237
sS'75'
p1224
I1238
sS'74'
p1225
I1239
sS'73'
p1226
I1240
sS'72'
p1227
I1241
sS'71'
p1228
I1242
sS'70'
p1229
I1243
sS'79'
p1230
I1244
sS'78'
p1231
I1245
sS'1043'
p1232
I1246
sS'1042'
p1233
I1247
sS'1041'
p1234
I1248
sS'1040'
p1235
I1249
sS'1047'
p1236
I1250
sS'1046'
p1237
I1251
sS'1045'
p1238
I1252
sS'1044'
p1239
I1253
sS'1049'
p1240
I1254
sS'1048'
p1241
I1255
sS'1681'
p1242
I1256
sS'1680'
p1243
I1257
sS'1683'
p1244
I1258
sS'1682'
p1245
I1259
sS'1685'
p1246
I1260
sS'1684'
p1247
I1261
sS'1687'
p1248
I1262
sS'1686'
p1249
I1263
sS'1689'
p1250
I1264
sS'1688'
p1251
I1265
sS'1269'
p1252
I1266
sS'1268'
p1253
I1267
sS'669'
p1254
I1268
sS'668'
p1255
I1269
sS'667'
p1256
I1270
sS'1262'
p1257
I1271
sS'665'
p1258
I1272
sS'664'
p1259
I1273
sS'1267'
p1260
I1274
sS'1266'
p1261
I1275
sS'1265'
p1262
I1276
sS'1264'
p1263
I1277
sS'1469'
p1264
I1278
sS'1468'
p1265
I1279
sS'1465'
p1266
I1280
sS'1018'
p1267
I1281
sS'1467'
p1268
I1282
sS'1466'
p1269
I1283
sS'1461'
p1270
I1284
sS'1460'
p1271
I1285
sS'1463'
p1272
I1286
sS'1019'
p1273
I1287
sS'1317'
p1274
I1288
sS'1316'
p1275
I1289
sS'1315'
p1276
I1290
sS'1314'
p1277
I1291
sS'1313'
p1278
I1292
sS'1312'
p1279
I1293
sS'1311'
p1280
I1294
sS'1310'
p1281
I1295
sS'1319'
p1282
I1296
sS'1318'
p1283
I1297
sS'1010'
p1284
I1298
sS'1011'
p1285
I1299
sS'319'
p1286
I1300
sS'318'
p1287
I1301
sS'313'
p1288
I1302
sS'312'
p1289
I1303
sS'311'
p1290
I1304
sS'310'
p1291
I1305
sS'317'
p1292
I1306
sS'316'
p1293
I1307
sS'315'
p1294
I1308
sS'314'
p1295
I1309
sS'1520'
p1296
I1571
sS'443'
p1297
I1563
sS'442'
p1298
I1564
sS'441'
p1299
I1565
sS'440'
p1300
I1566
sS'420'
p1301
I441
sS'447'
p1302
I1567
sS'1330'
p1303
I1315
sS'445'
p1304
I1569
sS'444'
p1305
I1570
sS'403'
p1306
I153
sS'1861'
p1307
I1321
sS'1860'
p1308
I1322
sS'1863'
p1309
I1323
sS'1862'
p1310
I1324
sS'1865'
p1311
I1325
sS'1864'
p1312
I1326
sS'1867'
p1313
I1327
sS'1866'
p1314
I1328
sS'1869'
p1315
I1329
sS'1868'
p1316
I1330
sS'964'
p1317
I1331
sS'965'
p1318
I1332
sS'966'
p1319
I1333
sS'967'
p1320
I1334
sS'960'
p1321
I1335
sS'961'
p1322
I1336
sS'962'
p1323
I1337
sS'963'
p1324
I1338
sS'968'
p1325
I1339
sS'969'
p1326
I1340
sS'286'
p1327
I1854
sS'1537'
p1328
I1370
sS'878'
p1329
I1343
sS'1240'
p1330
I1344
sS'876'
p1331
I1345
sS'877'
p1332
I1346
sS'874'
p1333
I1347
sS'875'
p1334
I1348
sS'872'
p1335
I1349
sS'1243'
p1336
I1350
sS'870'
p1337
I1351
sS'871'
p1338
I1352
sS'597'
p1339
I1541
sS'1242'
p1340
I1353
sS'9'
I1354
sS'1533'
p1341
I1425
sS'1244'
p1342
I1356
sS'890'
p1343
I1357
sS'891'
p1344
I1358
sS'892'
p1345
I1359
sS'893'
p1346
I1360
sS'894'
p1347
I1361
sS'895'
p1348
I187
sS'896'
p1349
I1363
sS'897'
p1350
I1364
sS'898'
p1351
I1365
sS'899'
p1352
I1366
sS'646'
p1353
I1367
sS'649'
p1354
I1593
sS'1248'
p1355
I1594
sS'641'
p1356
I1585
sS'1964'
p1357
I1371
sS'422'
p1358
I443
sS'1965'
p1359
I1372
sS'1966'
p1360
I1373
sS'1788'
p1361
I1374
sS'1789'
p1362
I1375
sS'768'
p1363
I1376
sS'1967'
p1364
I579
sS'265'
p1365
I1863
sS'1780'
p1366
I31
sS'1612'
p1367
I235
sS'1782'
p1368
I282
sS'1783'
p1369
I283
sS'1784'
p1370
I284
sS'1785'
p1371
I285
sS'1786'
p1372
I286
sS'1613'
p1373
I236
sS'1962'
p1374
I1386
sS'1963'
p1375
I1387
sS'1078'
p1376
I1388
sS'1079'
p1377
I1389
sS'1076'
p1378
I1390
sS'1077'
p1379
I1391
sS'1074'
p1380
I1392
sS'1075'
p1381
I1393
sS'1072'
p1382
I1394
sS'1073'
p1383
I1395
sS'1070'
p1384
I1396
sS'1071'
p1385
I1397
sS'1678'
p1386
I1398
sS'1679'
p1387
I334
sS'1674'
p1388
I1400
sS'1675'
p1389
I1401
sS'1676'
p1390
I1402
sS'1677'
p1391
I1403
sS'1670'
p1392
I1404
sS'1671'
p1393
I1405
sS'1672'
p1394
I1406
sS'1673'
p1395
I1407
sS'1094'
p1396
I1408
sS'1095'
p1397
I1409
sS'1096'
p1398
I1410
sS'1097'
p1399
I1411
sS'678'
p1400
I350
sS'679'
p1401
I351
sS'1092'
p1402
I1414
sS'1093'
p1403
I1415
sS'674'
p1404
I1416
sS'675'
p1405
I1417
sS'676'
p1406
I1418
sS'677'
p1407
I1419
sS'670'
p1408
I362
sS'671'
p1409
I363
sS'672'
p1410
I1422
sS'673'
p1411
I1423
sS'645'
p1412
I1589
sS'1418'
p1413
I1426
sS'1419'
p1414
I1427
sS'1410'
p1415
I1428
sS'1411'
p1416
I1429
sS'1412'
p1417
I1430
sS'1413'
p1418
I1431
sS'1414'
p1419
I1432
sS'1415'
p1420
I1433
sS'1416'
p1421
I1434
sS'1417'
p1422
I1435
sS'1322'
p1423
I1436
sS'1323'
p1424
I1437
sS'1320'
p1425
I1438
sS'1321'
p1426
I1439
sS'1326'
p1427
I1440
sS'1327'
p1428
I1441
sS'1324'
p1429
I1442
sS'1325'
p1430
I1443
sS'1328'
p1431
I1444
sS'1329'
p1432
I1445
sS'1531'
p1433
I1447
sS'1524'
p1434
I478
sS'1525'
p1435
I481
sS'1526'
p1436
I487
sS'1527'
p1437
I492
sS'1252'
p1438
I1452
sS'1521'
p1439
I1320
sS'1522'
p1440
I502
sS'1523'
p1441
I504
sS'1528'
p1442
I1456
sS'1529'
p1443
I1457
sS'1258'
p1444
I1458
sS'1259'
p1445
I1459
sS'308'
p1446
I1460
sS'309'
p1447
I1461
sS'300'
p1448
I1462
sS'301'
p1449
I1463
sS'302'
p1450
I1464
sS'303'
p1451
I1465
sS'304'
p1452
I1466
sS'305'
p1453
I1467
sS'306'
p1454
I1468
sS'307'
p1455
I1469
sS'473'
p1456
I1989
sS'1898'
p1457
I1473
sS'1899'
p1458
I1474
sS'1894'
p1459
I1475
sS'1895'
p1460
I1476
sS'1896'
p1461
I1477
sS'1897'
p1462
I860
sS'1890'
p1463
I1479
sS'1891'
p1464
I861
sS'1892'
p1465
I1481
sS'1893'
p1466
I1482
sS'959'
p1467
I1483
sS'958'
p1468
I1484
sS'951'
p1469
I1485
sS'950'
p1470
I1486
sS'953'
p1471
I1487
sS'952'
p1472
I1488
sS'955'
p1473
I1489
sS'954'
p1474
I1490
sS'957'
p1475
I1491
sS'956'
p1476
I1492
sS'2000'
p1477
I1495
sS'1263'
p1478
I1498
sS'666'
p1479
I1499
sS'1261'
p1480
I1500
sS'1799'
p1481
I1501
sS'1798'
p1482
I1075
sS'719'
p1483
I1503
sS'718'
p1484
I1504
sS'717'
p1485
I1505
sS'663'
p1486
I914
sS'1791'
p1487
I1094
sS'1790'
p1488
I1497
sS'713'
p1489
I1509
sS'712'
p1490
I1510
sS'1795'
p1491
I1109
sS'1794'
p1492
I1110
sS'661'
p1493
I1513
sS'716'
p1494
I1506
sS'660'
p1495
I1514
sS'1069'
p1496
I1515
sS'1068'
p1497
I1516
sS'1061'
p1498
I1517
sS'1060'
p1499
I1518
sS'1063'
p1500
I1519
sS'1062'
p1501
I1520
sS'1065'
p1502
I1521
sS'1064'
p1503
I1522
sS'1067'
p1504
I1523
sS'1066'
p1505
I1524
sS'1669'
p1506
I1525
sS'1668'
p1507
I1526
sS'1667'
p1508
I1527
sS'1666'
p1509
I1528
sS'1665'
p1510
I1529
sS'1664'
p1511
I1530
sS'1663'
p1512
I1531
sS'1662'
p1513
I1532
sS'1661'
p1514
I1533
sS'1660'
p1515
I1534
sS'1087'
p1516
I1159
sS'1086'
p1517
I1160
sS'1085'
p1518
I1161
sS'1084'
p1519
I1165
sS'1083'
p1520
I1170
sS'1082'
p1521
I1172
sS'1081'
p1522
I1178
sS'1080'
p1523
I1181
sS'599'
p1524
I1543
sS'598'
p1525
I1544
sS'1089'
p1526
I1545
sS'1088'
p1527
I1546
sS'714'
p1528
I1508
sS'1409'
p1529
I1547
sS'1408'
p1530
I1548
sS'1403'
p1531
I1549
sS'1402'
p1532
I1550
sS'1401'
p1533
I1551
sS'1400'
p1534
I1552
sS'1407'
p1535
I1553
sS'1406'
p1536
I1554
sS'1405'
p1537
I1555
sS'1404'
p1538
I1556
sS'1546'
p1539
I1557
sS'449'
p1540
I1558
sS'448'
p1541
I1559
sS'1339'
p1542
I1560
sS'1338'
p1543
I1561
sS'1547'
p1544
I1562
sS'1335'
p1545
I1310
sS'1334'
p1546
I1311
sS'1337'
p1547
I1312
sS'1336'
p1548
I1313
sS'1331'
p1549
I1314
sS'690'
p1550
I262
sS'1333'
p1551
I1316
sS'1332'
p1552
I1317
sS'691'
p1553
I263
sS'1542'
p1554
I1572
sS'1631'
p1555
I1897
sS'1543'
p1556
I1573
sS'39'
p1557
I1574
sS'38'
p1558
I1575
sS'1540'
p1559
I1576
sS'33'
p1560
I1577
sS'32'
p1561
I1578
sS'31'
p1562
I1579
sS'30'
p1563
I1580
sS'37'
p1564
I1581
sS'36'
p1565
I1582
sS'35'
p1566
I1583
sS'34'
p1567
I1584
sS'1241'
p1568
I1342
sS'1536'
p1569
I643
sS'1535'
p1570
I705
sS'1534'
p1571
I718
sS'1245'
p1572
I1355
sS'1532'
p1573
I780
sS'1247'
p1574
I1362
sS'1530'
p1575
I870
sS'1249'
p1576
I1368
sS'648'
p1577
I1369
sS'1539'
p1578
I1595
sS'1538'
p1579
I1596
sS'339'
p1580
I1597
sS'338'
p1581
I1598
sS'335'
p1582
I1599
sS'334'
p1583
I1600
sS'337'
p1584
I1601
sS'336'
p1585
I1602
sS'331'
p1586
I1603
sS'330'
p1587
I1604
sS'333'
p1588
I1605
sS'332'
p1589
I1606
sS'8'
I1608
sS'1464'
p1590
I1197
sS'1353'
p1591
I1810
sS'1636'
p1592
I1902
sS'1462'
p1593
I1609
sS'1352'
p1594
I1811
sS'1889'
p1595
I1611
sS'1888'
p1596
I1612
sS'1887'
p1597
I1613
sS'1886'
p1598
I1614
sS'1885'
p1599
I1615
sS'1884'
p1600
I1616
sS'1883'
p1601
I1617
sS'1882'
p1602
I1618
sS'1881'
p1603
I1619
sS'1880'
p1604
I1620
sS'948'
p1605
I1621
sS'949'
p1606
I1622
sS'946'
p1607
I1623
sS'947'
p1608
I1624
sS'944'
p1609
I1625
sS'945'
p1610
I1626
sS'942'
p1611
I1627
sS'943'
p1612
I1628
sS'940'
p1613
I1629
sS'941'
p1614
I1630
sS'133'
p1615
I1631
sS'132'
p1616
I1632
sS'131'
p1617
I1633
sS'130'
p1618
I1634
sS'137'
p1619
I1635
sS'136'
p1620
I1636
sS'135'
p1621
I1637
sS'134'
p1622
I1638
sS'139'
p1623
I1639
sS'138'
p1624
I1640
sS'708'
p1625
I1642
sS'709'
p1626
I1643
sS'704'
p1627
I1644
sS'705'
p1628
I1645
sS'706'
p1629
I1646
sS'707'
p1630
I1647
sS'700'
p1631
I1648
sS'701'
p1632
I1649
sS'702'
p1633
I1650
sS'703'
p1634
I1651
sS'88'
p1635
I1652
sS'89'
p1636
I1653
sS'82'
p1637
I1654
sS'83'
p1638
I1655
sS'80'
p1639
I1656
sS'81'
p1640
I1657
sS'86'
p1641
I1658
sS'87'
p1642
I1659
sS'84'
p1643
I1660
sS'85'
p1644
I1661
sS'762'
p1645
I1378
sS'1658'
p1646
I1662
sS'1659'
p1647
I1663
sS'1652'
p1648
I1664
sS'1653'
p1649
I10
sS'1650'
p1650
I1666
sS'1651'
p1651
I1667
sS'1656'
p1652
I1668
sS'1657'
p1653
I1669
sS'1654'
p1654
I1670
sS'1655'
p1655
I47
sS'586'
p1656
I1672
sS'587'
p1657
I1673
sS'584'
p1658
I1674
sS'585'
p1659
I1675
sS'763'
p1660
I1379
sS'583'
p1661
I1677
sS'580'
p1662
I1678
sS'581'
p1663
I1679
sS'1632'
p1664
I1898
sS'588'
p1665
I1681
sS'589'
p1666
I1682
sS'1633'
p1667
I1683
sS'1634'
p1668
I1900
sS'1348'
p1669
I1700
sS'1635'
p1670
I1901
sS'1436'
p1671
I1686
sS'1437'
p1672
I1687
sS'1434'
p1673
I1688
sS'1435'
p1674
I1689
sS'1432'
p1675
I1690
sS'1433'
p1676
I1691
sS'1430'
p1677
I1692
sS'1431'
p1678
I1693
sS'1380'
p1679
I1694
sS'1637'
p1680
I1903
sS'1438'
p1681
I1696
sS'1439'
p1682
I81
sS'1260'
p1683
I1502
sS'1541'
p1684
I1699
sS'458'
p1685
I140
sS'1349'
p1686
I1698
sS'450'
p1687
I1702
sS'451'
p1688
I1703
sS'1342'
p1689
I159
sS'453'
p1690
I162
sS'454'
p1691
I163
sS'455'
p1692
I164
sS'1346'
p1693
I165
sS'1347'
p1694
I166
sS'517'
p1695
I691
sS'1502'
p1696
I208
sS'1503'
p1697
I209
sS'1500'
p1698
I210
sS'1501'
p1699
I211
sS'1506'
p1700
I212
sS'1507'
p1701
I213
sS'1504'
p1702
I215
sS'1505'
p1703
I216
sS'1508'
p1704
I1718
sS'1509'
p1705
I1719
sS'658'
p1706
I1720
sS'659'
p1707
I220
sS'1992'
p1708
I1722
sS'765'
p1709
I1385
sS'1292'
p1710
I1969
sS'1376'
p1711
I1723
sS'322'
p1712
I1724
sS'323'
p1713
I1725
sS'320'
p1714
I1726
sS'321'
p1715
I1727
sS'326'
p1716
I1728
sS'327'
p1717
I1729
sS'324'
p1718
I1730
sS'325'
p1719
I1731
sS'328'
p1720
I1732
sS'329'
p1721
I1733
sS'1340'
p1722
I1734
sS'1594'
p1723
I1735
sS'1341'
p1724
I1736
sS'1995'
p1725
I1737
sS'1592'
p1726
I1738
sS'1598'
p1727
I1739
sS'995'
p1728
I1740
sS'994'
p1729
I1741
sS'997'
p1730
I1742
sS'996'
p1731
I1743
sS'991'
p1732
I1744
sS'990'
p1733
I1745
sS'993'
p1734
I1746
sS'992'
p1735
I1747
sS'999'
p1736
I1748
sS'998'
p1737
I1749
sS'120'
p1738
I1750
sS'121'
p1739
I1751
sS'122'
p1740
I1752
sS'1026'
p1741
I1607
sS'124'
p1742
I1754
sS'125'
p1743
I1755
sS'126'
p1744
I1756
sS'127'
p1745
I1757
sS'128'
p1746
I1758
sS'129'
p1747
I1759
sS'722'
p1748
I1932
sS'723'
p1749
I1933
sS'1645'
p1750
I1762
sS'1644'
p1751
I1763
sS'1647'
p1752
I1764
sS'1646'
p1753
I1765
sS'1641'
p1754
I1766
sS'1640'
p1755
I1767
sS'1643'
p1756
I1768
sS'1642'
p1757
I1769
sS'1649'
p1758
I1770
sS'1648'
p1759
I1771
sS'728'
p1760
I1942
sS'729'
p1761
I1943
sS'579'
p1762
I1774
sS'578'
p1763
I1775
sS'573'
p1764
I1776
sS'572'
p1765
I1777
sS'571'
p1766
I1778
sS'570'
p1767
I1779
sS'577'
p1768
I1780
sS'576'
p1769
I1781
sS'575'
p1770
I1782
sS'574'
p1771
I1783
sS'1209'
p1772
I1784
sS'1208'
p1773
I1785
sS'1421'
p1774
I1786
sS'1420'
p1775
I1787
sS'1997'
p1776
I1424
sS'1422'
p1777
I1789
sS'1425'
p1778
I1790
sS'1424'
p1779
I1791
sS'1427'
p1780
I1792
sS'1426'
p1781
I1793
sS'1429'
p1782
I1794
sS'1428'
p1783
I1795
sS'731'
p1784
I1796
sS'730'
p1785
I1797
sS'733'
p1786
I1798
sS'732'
p1787
I1799
sS'735'
p1788
I1800
sS'734'
p1789
I1801
sS'737'
p1790
I1802
sS'736'
p1791
I1803
sS'739'
p1792
I1804
sS'738'
p1793
I1805
sS'1359'
p1794
I1806
sS'1358'
p1795
I1807
sS'469'
p1796
I1808
sS'468'
p1797
I1809
sS'465'
p1798
I843
sS'464'
p1799
I988
sS'467'
p1800
I991
sS'466'
p1801
I994
sS'1357'
p1802
I995
sS'460'
p1803
I996
sS'1355'
p1804
I997
sS'1200'
p1805
I973
sS'1273'
p1806
I1818
sS'1519'
p1807
I1819
sS'1518'
p1808
I1820
sS'1515'
p1809
I1821
sS'1514'
p1810
I1822
sS'1517'
p1811
I1823
sS'1516'
p1812
I1824
sS'1511'
p1813
I1036
sS'1510'
p1814
I1826
sS'1513'
p1815
I1827
sS'1512'
p1816
I1828
sS'281'
p1817
I1847
sS'1735'
p1818
I1829
sS'1275'
p1819
I1830
sS'280'
p1820
I1848
sS'582'
p1821
I1676
sS'357'
p1822
I1831
sS'356'
p1823
I1832
sS'355'
p1824
I1833
sS'354'
p1825
I1834
sS'353'
p1826
I1835
sS'352'
p1827
I1836
sS'351'
p1828
I1837
sS'350'
p1829
I1838
sS'359'
p1830
I1839
sS'358'
p1831
I1840
sS'1447'
p1832
I1841
sS'1446'
p1833
I1842
sS'1445'
p1834
I1843
sS'484'
p1835
I1899
sS'289'
p1836
I1844
sS'288'
p1837
I1845
sS'1444'
p1838
I1846
sS'1793'
p1839
I1641
sS'5'
I1446
sS'283'
p1840
I1849
sS'282'
p1841
I1850
sS'285'
p1842
I1851
sS'284'
p1843
I1852
sS'287'
p1844
I1853
sS'1442'
p1845
I1493
sS'1441'
p1846
I1855
sS'1116'
p1847
I1856
sS'263'
p1848
I1857
sS'262'
p1849
I1858
sS'261'
p1850
I1859
sS'260'
p1851
I1860
sS'267'
p1852
I1861
sS'266'
p1853
I1862
sS'1792'
p1854
I1470
sS'264'
p1855
I1864
sS'269'
p1856
I1865
sS'268'
p1857
I1866
sS'1290'
p1858
I1971
sS'1291'
p1859
I1972
sS'1296'
p1860
I1973
sS'1297'
p1861
I1974
sS'1294'
p1862
I1975
sS'1295'
p1863
I1976
sS'988'
p1864
I1874
sS'989'
p1865
I1875
sS'982'
p1866
I1876
sS'983'
p1867
I1877
sS'980'
p1868
I1878
sS'981'
p1869
I1879
sS'986'
p1870
I1880
sS'987'
p1871
I1881
sS'984'
p1872
I1882
sS'985'
p1873
I1883
sS'115'
p1874
I1884
sS'114'
p1875
I1885
sS'117'
p1876
I1886
sS'116'
p1877
I1887
sS'111'
p1878
I1888
sS'110'
p1879
I1889
sS'113'
p1880
I1890
sS'112'
p1881
I1891
sS'119'
p1882
I1892
sS'118'
p1883
I1893
sS'1797'
p1884
I1894
sS'1388'
p1885
I1665
sS'1796'
p1886
I1895
sS'1035'
p1887
I959
sS'1389'
p1888
I1671
sS'1986'
p1889
I778
sS'1987'
p1890
I779
sS'1984'
p1891
I1680
sS'1985'
p1892
I239
sS'1982'
p1893
I1684
sS'1983'
p1894
I1685
sS'1980'
p1895
I1869
sS'1981'
p1896
I1695
sS'1638'
p1897
I1904
sS'1639'
p1898
I1905
sS'1988'
p1899
I1906
sS'1989'
p1900
I1907
sS'568'
p1901
I1908
sS'569'
p1902
I1909
sS'560'
p1903
I1910
sS'561'
p1904
I1911
sS'562'
p1905
I1912
sS'563'
p1906
I1913
sS'564'
p1907
I1914
sS'565'
p1908
I1915
sS'566'
p1909
I1916
sS'567'
p1910
I1917
sS'1188'
p1911
I1918
sS'1189'
p1912
I1919
sS'1186'
p1913
I1920
sS'1187'
p1914
I1921
sS'1184'
p1915
I1922
sS'1185'
p1916
I1923
sS'1182'
p1917
I1924
sS'1183'
p1918
I1925
sS'1180'
p1919
I1926
sS'1181'
p1920
I1927
sS'726'
p1921
I1928
sS'727'
p1922
I1929
sS'724'
p1923
I1930
sS'725'
p1924
I1931
sS'1748'
p1925
I1760
sS'1749'
p1926
I1761
sS'720'
p1927
I1934
sS'721'
p1928
I1935
sS'1744'
p1929
I1936
sS'1745'
p1930
I1937
sS'1746'
p1931
I1938
sS'1747'
p1932
I1939
sS'1740'
p1933
I1940
sS'1741'
p1934
I1941
sS'1742'
p1935
I1772
sS'1743'
p1936
I1773
sS'1164'
p1937
I1944
sS'1165'
p1938
I1945
sS'1166'
p1939
I1946
sS'1167'
p1940
I1947
sS'1160'
p1941
I1948
sS'1161'
p1942
I1949
sS'640'
p1943
I1586
sS'1163'
p1944
I1951
sS'1168'
p1945
I1952
sS'1169'
p1946
I1953
sS'1366'
p1947
I1988
sS'48'
p1948
I1955
sS'49'
p1949
I1956
sS'46'
p1950
I1957
sS'47'
p1951
I1958
sS'44'
p1952
I1959
sS'45'
p1953
I1960
sS'42'
p1954
I1961
sS'43'
p1955
I1962
sS'40'
p1956
I1963
sS'41'
p1957
I1964
sS'1568'
p1958
I1965
sS'1569'
p1959
I1966
sS'1298'
p1960
I1967
sS'1299'
p1961
I1968
sS'1560'
p1962
I1341
sS'1561'
p1963
I1399
sS'1562'
p1964
I1867
sS'1563'
p1965
I1868
sS'1564'
p1966
I1870
sS'1565'
p1967
I1871
sS'1566'
p1968
I1872
sS'1567'
p1969
I1873
sS'1713'
p1970
I1977
sS'1360'
p1971
I1994
sS'1712'
p1972
I1979
sS'1361'
p1973
I1995
sS'1711'
p1974
I1981
sS'1381'
p1975
I1697
sS'1710'
p1976
I1982
sS'1717'
p1977
I1983
sS'1716'
p1978
I1984
sS'1715'
p1979
I1985
sS'1201'
p1980
I1986
sS'1714'
p1981
I1987
sS'472'
p1982
I1954
sS'1367'
p1983
I214
sS'470'
p1984
I1471
sS'471'
p1985
I1472
sS'476'
p1986
I1480
sS'477'
p1987
I1494
sS'474'
p1988
I1978
sS'475'
p1989
I1980
sS'478'
p1990
I1996
sS'479'
p1991
I1997
sS'1368'
p1992
I1998
sS'1369'
p1993
I1999
sa(dp1994
S'\xe8\xbe\xbd\xe9\x98\xb3'
p1995
I116
sS'\xe4\xb8\x89\xe6\x98\x8e'
p1996
I0
sS'\xe9\x95\x87\xe6\xb1\x9f'
p1997
I1
sS'\xe6\xb5\x8e\xe5\xae\x81'
p1998
I2
sS'\xe6\x88\x90\xe9\x83\xbd'
p1999
I3
sS'\xe4\xb8\xbd\xe6\xb0\xb4'
p2000
I4
sS'\xe5\xa4\xaa\xe5\x8e\x9f'
p2001
I5
sS'\xe8\x91\xab\xe8\x8a\xa6\xe5\xb2\x9b'
p2002
I6
sS'\xe8\x8e\x86\xe7\x94\xb0'
p2003
I7
sS'\xe5\xa4\xa7\xe8\xbf\x9e'
p2004
I64
sS'\xe6\x9d\xad\xe5\xb7\x9e'
p2005
I9
sS'\xe5\xae\x9c\xe6\x98\x8c'
p2006
I10
sS'\xe8\xb4\xb5\xe9\x98\xb3'
p2007
I11
sS'\xe4\xb8\x9c\xe8\x90\xa5'
p2008
I12
sS'\xe4\xb8\x89\xe4\xba\x9a'
p2009
I13
sS'\xe8\x87\xaa\xe8\xb4\xa1'
p2010
I14
sS'\xe4\xbf\x9d\xe5\xae\x9a'
p2011
I15
sS'\xe5\xae\xbf\xe8\xbf\x81'
p2012
I16
sS'\xe9\x94\xa6\xe5\xb7\x9e'
p2013
I17
sS'\xe8\xa5\x84\xe9\x98\xb3'
p2014
I18
sS'\xe9\x83\x91\xe5\xb7\x9e'
p2015
I19
sS'\xe6\xb1\x89\xe4\xb8\xad'
p2016
I21
sS'\xe6\xbf\xae\xe9\x98\xb3'
p2017
I22
sS'\xe8\x82\x87\xe5\xba\x86'
p2018
I23
sS'\xe6\xb3\xb0\xe5\xb7\x9e'
p2019
I24
sS'\xe6\x8a\x9a\xe9\xa1\xba'
p2020
I25
sS'\xe4\xb9\x90\xe5\xb1\xb1'
p2021
I26
sS'\xe7\xbb\x8d\xe5\x85\xb4'
p2022
I27
sS'\xe8\x8d\x86\xe5\xb7\x9e'
p2023
I28
sS'\xe9\x80\x9a\xe8\xbe\xbd'
p2024
I46
sS'\xe6\xb7\xb1\xe5\x9c\xb3'
p2025
I30
sS'\xe9\x82\xaf\xe9\x83\xb8'
p2026
I31
sS'\xe5\x8f\xb0\xe5\xb7\x9e'
p2027
I32
sS'\xe5\x8e\xa6\xe9\x97\xa8'
p2028
I33
sS'\xe4\xbf\xa1\xe9\x98\xb3'
p2029
I34
sS'\xe5\xbe\xb7\xe9\x98\xb3'
p2030
I35
sS'\xe6\xb1\x95\xe5\xb0\xbe'
p2031
I36
sS'\xe5\x8d\x97\xe9\x80\x9a'
p2032
I37
sS'\xe5\xb8\xb8\xe5\xb7\x9e'
p2033
I38
sS'\xe6\xa2\xa7\xe5\xb7\x9e'
p2034
I39
sS'\xe5\xbe\x90\xe5\xb7\x9e'
p2035
I40
sS'\xe5\x8d\x97\xe5\xae\x81'
p2036
I41
sS'\xe5\x8d\x97\xe5\xb9\xb3'
p2037
I42
sS'\xe9\x9d\x92\xe5\xb2\x9b'
p2038
I43
sS'\xe4\xb8\xad\xe5\xb1\xb1'
p2039
I44
sS'\xe6\xbc\xb3\xe5\xb7\x9e'
p2040
I45
sS'\xe5\xae\x81\xe5\xbe\xb7'
p2041
I29
sS'\xe6\xbd\x8d\xe5\x9d\x8a'
p2042
I47
sS'\xe6\xb7\xae\xe5\xae\x89'
p2043
I48
sS'\xe6\xb9\x96\xe5\xb7\x9e'
p2044
I49
sS'\xe9\x98\xb3\xe6\xb1\x9f'
p2045
I50
sS'\xe7\x9f\xb3\xe5\xae\xb6\xe5\xba\x84'
p2046
I51
sS'\xe6\xb7\xae\xe5\x8c\x97'
p2047
I52
sS'\xe8\x9a\x8c\xe5\x9f\xa0'
p2048
I53
sS'\xe7\x9b\x90\xe5\x9f\x8e'
p2049
I61
sS'\xe5\x90\x88\xe8\x82\xa5'
p2050
I55
sS'\xe5\x93\x88\xe5\xb0\x94\xe6\xbb\xa8'
p2051
I56
sS'\xe4\xb8\x9c\xe8\x8e\x9e'
p2052
I57
sS'\xe9\x98\x9c\xe9\x98\xb3'
p2053
I58
sS'\xe5\xae\x81\xe6\xb3\xa2'
p2054
I59
sS'\xe8\xa5\xbf\xe5\xae\x89'
p2055
I80
sS'\xe5\xbb\x8a\xe5\x9d\x8a'
p2056
I114
sS'\xe6\xa0\xaa\xe6\xb4\xb2'
p2057
I54
sS'\xe9\x87\x8d\xe5\xba\x86'
p2058
I62
sS'\xe9\xbb\x84\xe5\x86\x88'
p2059
I63
sS'\xe6\x97\xa5\xe7\x85\xa7'
p2060
I8
sS'\xe5\x8c\x97\xe4\xba\xac'
p2061
I65
sS'\xe6\xad\xa6\xe6\xb1\x89'
p2062
I66
sS'\xe4\xb8\x8a\xe6\xb5\xb7'
p2063
I67
sS'\xe8\x90\xa5\xe5\x8f\xa3'
p2064
I68
sS'\xe6\xb9\x9b\xe6\xb1\x9f'
p2065
I69
sS'\xe9\xbb\x84\xe7\x9f\xb3'
p2066
I70
sS'\xe9\x93\x9c\xe9\x99\xb5'
p2067
I71
sS'\xe7\xbb\xb5\xe9\x98\xb3'
p2068
I72
sS'\xe6\x89\xac\xe5\xb7\x9e'
p2069
I73
sS'\xe7\x9f\xb3\xe6\xb2\xb3\xe5\xad\x90'
p2070
I74
sS'\xe5\xbc\xa0\xe5\xae\xb6\xe5\x8f\xa3'
p2071
I75
sS'\xe5\xae\x9d\xe9\xb8\xa1'
p2072
I76
sS'\xe5\x8d\x81\xe5\xa0\xb0'
p2073
I77
sS'\xe6\x9f\xb3\xe5\xb7\x9e'
p2074
I92
sS'\xe8\xbe\xbe\xe5\xb7\x9e'
p2075
I60
sS'\xe5\xb9\xbf\xe5\xb7\x9e'
p2076
I81
sS'\xe8\x8b\x8f\xe5\xb7\x9e'
p2077
I82
sS'\xe8\xa1\xa2\xe5\xb7\x9e'
p2078
I83
sS'\xe5\x85\xad\xe5\xae\x89'
p2079
I84
sS'\xe6\xb5\x8e\xe5\x8d\x97'
p2080
I85
sS'\xe6\xb1\x9f\xe9\x97\xa8'
p2081
I86
sS'\xe5\x8d\x97\xe4\xba\xac'
p2082
I87
sS'\xe6\xb8\xa9\xe5\xb7\x9e'
p2083
I88
sS'\xe5\x98\x89\xe5\x85\xb4'
p2084
I89
sS'\xe4\xbd\x9b\xe5\xb1\xb1'
p2085
I90
sS'\xe5\x92\xb8\xe9\x98\xb3'
p2086
I91
sS'\xe8\x88\x9f\xe5\xb1\xb1'
p2087
I78
sS'\xe6\x83\xa0\xe5\xb7\x9e'
p2088
I93
sS'\xe9\x95\xbf\xe6\xb2\x99'
p2089
I94
sS'\xe6\x98\x86\xe6\x98\x8e'
p2090
I95
sS'\xe5\x8d\x97\xe6\x98\x8c'
p2091
I96
sS'\xe5\xa4\xa9\xe9\x97\xa8'
p2092
I97
sS'\xe5\x92\xb8\xe5\xae\x81'
p2093
I98
sS'\xe6\xb8\x85\xe8\xbf\x9c'
p2094
I99
sS'\xe9\xbb\x84\xe5\xb1\xb1'
p2095
I100
sS'\xe7\x83\x9f\xe5\x8f\xb0'
p2096
I101
sS'\xe9\x95\xbf\xe6\xb2\xbb'
p2097
I102
sS'\xe6\xb4\x9b\xe9\x98\xb3'
p2098
I103
sS'\xe4\xb8\x8a\xe9\xa5\xb6'
p2099
I104
sS'\xe8\x8d\x86\xe9\x97\xa8'
p2100
I105
sS'\xe5\xa8\x81\xe6\xb5\xb7'
p2101
I106
sS'\xe7\x8f\xa0\xe6\xb5\xb7'
p2102
I107
sS'\xe6\x80\x9d\xe8\x8c\x85'
p2103
I108
sS'\xe5\xa4\xa9\xe6\xb4\xa5'
p2104
I109
sS'\xe6\xb3\x89\xe5\xb7\x9e'
p2105
I110
sS'\xe7\x8e\x89\xe6\x9e\x97'
p2106
I111
sS'\xe5\xae\x89\xe5\xba\xb7'
p2107
I112
sS'\xe8\x8a\x9c\xe6\xb9\x96'
p2108
I113
sS'\xe6\xb2\x88\xe9\x98\xb3'
p2109
I79
sS'\xe5\xad\x9d\xe6\x84\x9f'
p2110
I115
sS'\xe9\x82\xa2\xe5\x8f\xb0'
p2111
I20
sS'\xe6\x97\xa0\xe9\x94\xa1'
p2112
I117
sS'\xe9\x87\x91\xe5\x8d\x8e'
p2113
I118
sS'\xe9\xbe\x99\xe5\xb2\xa9'
p2114
I119
sS'\xe8\x81\x8a\xe5\x9f\x8e'
p2115
I120
sS'\xe7\xa6\x8f\xe5\xb7\x9e'
p2116
I121
sa(dp2117
S'199'
p2118
I450
sS'1071'
p2119
I902
sS'669'
p2120
I580
sS'1145'
p2121
I581
sS'818'
p2122
I5
sS'819'
p2123
I281
sS'346'
p2124
I7
sS'347'
p2125
I8
sS'340'
p2126
I9
sS'341'
p2127
I10
sS'342'
p2128
I11
sS'343'
p2129
I12
sS'810'
p2130
I13
sS'811'
p2131
I14
sS'812'
p2132
I15
sS'813'
p2133
I16
sS'348'
p2134
I197
sS'815'
p2135
I18
sS'816'
p2136
I19
sS'817'
p2137
I20
sS'1149'
p2138
I585
sS'719'
p2139
I22
sS'718'
p2140
I23
sS'717'
p2141
I24
sS'716'
p2142
I25
sS'715'
p2143
I26
sS'714'
p2144
I27
sS'713'
p2145
I28
sS'712'
p2146
I29
sS'711'
p2147
I30
sS'710'
p2148
I31
sS'915'
p2149
I997
sS'914'
p2150
I998
sS'606'
p2151
I1097
sS'505'
p2152
I1073
sS'917'
p2153
I999
sS'1069'
p2154
I36
sS'1068'
p2155
I37
sS'422'
p2156
I1000
sS'1061'
p2157
I39
sS'1060'
p2158
I336
sS'1063'
p2159
I41
sS'1062'
p2160
I42
sS'1065'
p2161
I43
sS'1064'
p2162
I44
sS'1067'
p2163
I45
sS'1066'
p2164
I46
sS'913'
p2165
I1003
sS'298'
p2166
I48
sS'299'
p2167
I49
sS'296'
p2168
I50
sS'297'
p2169
I51
sS'294'
p2170
I412
sS'295'
p2171
I414
sS'292'
p2172
I54
sS'293'
p2173
I55
sS'290'
p2174
I56
sS'291'
p2175
I57
sS'1087'
p2176
I58
sS'1129'
p2177
I59
sS'593'
p2178
I60
sS'592'
p2179
I61
sS'595'
p2180
I62
sS'198'
p2181
I63
sS'1081'
p2182
I64
sS'1080'
p2183
I65
sS'195'
p2184
I52
sS'194'
p2185
I67
sS'197'
p2186
I68
sS'1123'
p2187
I69
sS'191'
p2188
I70
sS'1125'
p2189
I71
sS'1126'
p2190
I72
sS'1088'
p2191
I73
sS'270'
p2192
I74
sS'271'
p2193
I1038
sS'272'
p2194
I76
sS'585'
p2195
I389
sS'274'
p2196
I78
sS'275'
p2197
I79
sS'276'
p2198
I80
sS'277'
p2199
I81
sS'278'
p2200
I82
sS'279'
p2201
I83
sS'569'
p2202
I1044
sS'910'
p2203
I1002
sS'524'
p2204
I86
sS'525'
p2205
I87
sS'526'
p2206
I602
sS'527'
p2207
I89
sS'1018'
p2208
I90
sS'521'
p2209
I91
sS'522'
p2210
I92
sS'523'
p2211
I93
sS'1014'
p2212
I94
sS'1015'
p2213
I95
sS'1016'
p2214
I96
sS'1017'
p2215
I97
sS'1010'
p2216
I98
sS'529'
p2217
I99
sS'1012'
p2218
I100
sS'1013'
p2219
I101
sS'449'
p2220
I103
sS'448'
p2221
I104
sS'443'
p2222
I105
sS'442'
p2223
I106
sS'441'
p2224
I107
sS'440'
p2225
I108
sS'447'
p2226
I109
sS'446'
p2227
I110
sS'445'
p2228
I111
sS'444'
p2229
I112
sS'47'
p2230
I1116
sS'108'
p2231
I113
sS'109'
p2232
I114
sS'1135'
p2233
I400
sS'102'
p2234
I116
sS'103'
p2235
I117
sS'100'
p2236
I118
sS'101'
p2237
I119
sS'106'
p2238
I120
sS'107'
p2239
I121
sS'104'
p2240
I122
sS'105'
p2241
I123
sS'902'
p2242
I124
sS'903'
p2243
I125
sS'39'
p2244
I126
sS'38'
p2245
I127
sS'906'
p2246
I128
sS'907'
p2247
I129
sS'904'
p2248
I130
sS'905'
p2249
I131
sS'33'
p2250
I132
sS'32'
p2251
I133
sS'908'
p2252
I134
sS'30'
p2253
I135
sS'37'
p2254
I136
sS'36'
p2255
I137
sS'35'
p2256
I138
sS'34'
p2257
I139
sS'641'
p2258
I140
sS'640'
p2259
I141
sS'643'
p2260
I142
sS'642'
p2261
I143
sS'645'
p2262
I144
sS'644'
p2263
I145
sS'438'
p2264
I146
sS'439'
p2265
I147
sS'436'
p2266
I148
sS'437'
p2267
I149
sS'434'
p2268
I150
sS'435'
p2269
I151
sS'432'
p2270
I152
sS'433'
p2271
I153
sS'430'
p2272
I154
sS'431'
p2273
I155
sS'753'
p2274
I1043
sS'339'
p2275
I157
sS'338'
p2276
I158
sS'335'
p2277
I159
sS'334'
p2278
I160
sS'337'
p2279
I161
sS'336'
p2280
I162
sS'331'
p2281
I163
sS'330'
p2282
I164
sS'333'
p2283
I165
sS'332'
p2284
I166
sS'958'
p2285
I1111
sS'744'
p2286
I167
sS'558'
p2287
I170
sS'854'
p2288
I171
sS'344'
p2289
I172
sS'856'
p2290
I173
sS'857'
p2291
I174
sS'850'
p2292
I175
sS'851'
p2293
I176
sS'852'
p2294
I177
sS'345'
p2295
I6
sS'508'
p2296
I1134
sS'858'
p2297
I180
sS'859'
p2298
I181
sS'555'
p2299
I183
sS'6'
I184
sS'1150'
p2300
I927
sS'425'
p2301
I1001
sS'43'
p2302
I1120
sS'848'
p2303
I1031
sS'99'
p2304
I186
sS'98'
p2305
I187
sS'844'
p2306
I1022
sS'1085'
p2307
I878
sS'91'
p2308
I188
sS'90'
p2309
I189
sS'93'
p2310
I190
sS'92'
p2311
I191
sS'95'
p2312
I192
sS'94'
p2313
I193
sS'97'
p2314
I194
sS'96'
p2315
I195
sS'814'
p2316
I17
sS'349'
p2317
I199
sS'740'
p2318
I201
sS'741'
p2319
I202
sS'742'
p2320
I203
sS'743'
p2321
I204
sS'559'
p2322
I205
sS'745'
p2323
I206
sS'746'
p2324
I207
sS'747'
p2325
I208
sS'748'
p2326
I209
sS'554'
p2327
I210
sS'557'
p2328
I211
sS'556'
p2329
I212
sS'551'
p2330
I213
sS'550'
p2331
I214
sS'553'
p2332
I215
sS'552'
p2333
I216
sS'409'
p2334
I940
sS'238'
p2335
I217
sS'239'
p2336
I218
sS'234'
p2337
I219
sS'235'
p2338
I220
sS'236'
p2339
I221
sS'237'
p2340
I222
sS'230'
p2341
I223
sS'231'
p2342
I224
sS'232'
p2343
I225
sS'233'
p2344
I226
sS'1050'
p2345
I227
sS'1051'
p2346
I228
sS'1052'
p2347
I229
sS'1053'
p2348
I230
sS'1054'
p2349
I231
sS'1055'
p2350
I232
sS'1056'
p2351
I233
sS'1057'
p2352
I234
sS'1058'
p2353
I235
sS'1059'
p2354
I236
sS'992'
p2355
I623
sS'1'
I237
sS'155'
p2356
I1098
sS'146'
p2357
I238
sS'147'
p2358
I239
sS'618'
p2359
I240
sS'145'
p2360
I241
sS'142'
p2361
I242
sS'143'
p2362
I243
sS'140'
p2363
I244
sS'141'
p2364
I245
sS'612'
p2365
I246
sS'613'
p2366
I247
sS'610'
p2367
I248
sS'611'
p2368
I249
sS'616'
p2369
I250
sS'617'
p2370
I251
sS'614'
p2371
I252
sS'149'
p2372
I253
sS'1007'
p2373
I422
sS'510'
p2374
I423
sS'1091'
p2375
I919
sS'1005'
p2376
I424
sS'512'
p2377
I425
sS'948'
p2378
I260
sS'949'
p2379
I510
sS'946'
p2380
I262
sS'515'
p2381
I426
sS'944'
p2382
I264
sS'945'
p2383
I265
sS'942'
p2384
I266
sS'943'
p2385
I267
sS'940'
p2386
I268
sS'941'
p2387
I269
sS'768'
p2388
I874
sS'689'
p2389
I270
sS'688'
p2390
I271
sS'685'
p2391
I272
sS'684'
p2392
I273
sS'687'
p2393
I274
sS'686'
p2394
I275
sS'681'
p2395
I276
sS'680'
p2396
I277
sS'683'
p2397
I278
sS'682'
p2398
I279
sS'623'
p2399
I430
sS'622'
p2400
I431
sS'133'
p2401
I283
sS'132'
p2402
I284
sS'131'
p2403
I285
sS'130'
p2404
I286
sS'498'
p2405
I287
sS'499'
p2406
I288
sS'135'
p2407
I289
sS'134'
p2408
I290
sS'494'
p2409
I291
sS'495'
p2410
I292
sS'139'
p2411
I293
sS'497'
p2412
I84
sS'490'
p2413
I295
sS'491'
p2414
I296
sS'492'
p2415
I297
sS'493'
p2416
I298
sS'24'
p2417
I299
sS'25'
p2418
I300
sS'26'
p2419
I301
sS'27'
p2420
I302
sS'20'
p2421
I303
sS'21'
p2422
I304
sS'22'
p2423
I305
sS'23'
p2424
I306
sS'28'
p2425
I307
sS'29'
p2426
I308
sS'407'
p2427
I311
sS'406'
p2428
I312
sS'939'
p2429
I313
sS'404'
p2430
I314
sS'403'
p2431
I315
sS'402'
p2432
I316
sS'401'
p2433
I317
sS'400'
p2434
I318
sS'933'
p2435
I319
sS'932'
p2436
I320
sS'931'
p2437
I321
sS'930'
p2438
I322
sS'937'
p2439
I323
sS'936'
p2440
I324
sS'935'
p2441
I325
sS'934'
p2442
I326
sS'453'
p2443
I441
sS'1028'
p2444
I1080
sS'183'
p2445
I464
sS'379'
p2446
I332
sS'378'
p2447
I333
sS'228'
p2448
I1061
sS'829'
p2449
I334
sS'828'
p2450
I335
sS'371'
p2451
I337
sS'370'
p2452
I338
sS'827'
p2453
I339
sS'826'
p2454
I156
sS'375'
p2455
I341
sS'820'
p2456
I32
sS'377'
p2457
I343
sS'376'
p2458
I344
sS'1019'
p2459
I615
sS'708'
p2460
I346
sS'709'
p2461
I347
sS'704'
p2462
I348
sS'705'
p2463
I349
sS'706'
p2464
I350
sS'707'
p2465
I351
sS'700'
p2466
I352
sS'701'
p2467
I353
sS'702'
p2468
I354
sS'703'
p2469
I355
sS'393'
p2470
I356
sS'392'
p2471
I357
sS'88'
p2472
I358
sS'619'
p2473
I0
sS'397'
p2474
I360
sS'396'
p2475
I361
sS'395'
p2476
I362
sS'394'
p2477
I363
sS'82'
p2478
I364
sS'83'
p2479
I365
sS'399'
p2480
I366
sS'398'
p2481
I367
sS'86'
p2482
I368
sS'87'
p2483
I369
sS'84'
p2484
I370
sS'85'
p2485
I371
sS'797'
p2486
I372
sS'796'
p2487
I373
sS'795'
p2488
I374
sS'794'
p2489
I375
sS'793'
p2490
I376
sS'792'
p2491
I377
sS'791'
p2492
I378
sS'929'
p2493
I643
sS'749'
p2494
I1110
sS'799'
p2495
I380
sS'798'
p2496
I381
sS'7'
I383
sS'170'
p2497
I385
sS'607'
p2498
I1096
sS'586'
p2499
I386
sS'587'
p2500
I387
sS'1139'
p2501
I388
sS'1138'
p2502
I77
sS'582'
p2503
I849
sS'583'
p2504
I391
sS'580'
p2505
I392
sS'581'
p2506
I393
sS'1133'
p2507
I394
sS'1132'
p2508
I395
sS'1131'
p2509
I396
sS'1130'
p2510
I397
sS'1137'
p2511
I398
sS'1136'
p2512
I399
sS'588'
p2513
I115
sS'589'
p2514
I401
sS'245'
p2515
I402
sS'244'
p2516
I403
sS'247'
p2517
I404
sS'246'
p2518
I405
sS'241'
p2519
I406
sS'240'
p2520
I407
sS'243'
p2521
I408
sS'242'
p2522
I409
sS'615'
p2523
I410
sS'249'
p2524
I411
sS'248'
p2525
I182
sS'924'
p2526
I654
sS'925'
p2527
I655
sS'519'
p2528
I418
sS'518'
p2529
I419
sS'1009'
p2530
I420
sS'1008'
p2531
I421
sS'511'
p2532
I254
sS'1006'
p2533
I256
sS'513'
p2534
I257
sS'1004'
p2535
I258
sS'1003'
p2536
I263
sS'1002'
p2537
I427
sS'517'
p2538
I428
sS'1000'
p2539
I185
sS'458'
p2540
I280
sS'459'
p2541
I282
sS'621'
p2542
I432
sS'620'
p2543
I433
sS'627'
p2544
I434
sS'626'
p2545
I310
sS'625'
p2546
I436
sS'624'
p2547
I437
sS'450'
p2548
I438
sS'451'
p2549
I439
sS'452'
p2550
I1
sS'628'
p2551
I327
sS'454'
p2552
I442
sS'455'
p2553
I443
sS'456'
p2554
I444
sS'457'
p2555
I445
sS'1084'
p2556
I446
sS'179'
p2557
I447
sS'178'
p2558
I448
sS'177'
p2559
I449
sS'1083'
p2560
I345
sS'175'
p2561
I451
sS'174'
p2562
I452
sS'173'
p2563
I453
sS'172'
p2564
I454
sS'171'
p2565
I455
sS'594'
p2566
I261
sS'977'
p2567
I457
sS'976'
p2568
I458
sS'975'
p2569
I459
sS'974'
p2570
I460
sS'973'
p2571
I461
sS'972'
p2572
I413
sS'971'
p2573
I463
sS'970'
p2574
I416
sS'596'
p2575
I465
sS'180'
p2576
I471
sS'979'
p2577
I467
sS'978'
p2578
I468
sS'656'
p2579
I469
sS'1120'
p2580
I66
sS'654'
p2581
I466
sS'181'
p2582
I472
sS'652'
p2583
I473
sS'187'
p2584
I474
sS'650'
p2585
I475
sS'651'
p2586
I382
sS'186'
p2587
I477
sS'188'
p2588
I478
sS'189'
p2589
I479
sS'1122'
p2590
I480
sS'658'
p2591
I481
sS'516'
p2592
I429
sS'1110'
p2593
I1124
sS'196'
p2594
I483
sS'184'
p2595
I484
sS'1124'
p2596
I485
sS'185'
p2597
I486
sS'190'
p2598
I487
sS'193'
p2599
I490
sS'764'
p2600
I886
sS'192'
p2601
I491
sS'869'
p2602
I492
sS'10'
p2603
I493
sS'13'
p2604
I494
sS'12'
p2605
I495
sS'15'
p2606
I496
sS'14'
p2607
I497
sS'17'
p2608
I498
sS'16'
p2609
I499
sS'19'
p2610
I75
sS'18'
p2611
I85
sS'863'
p2612
I502
sS'862'
p2613
I503
sS'865'
p2614
I504
sS'864'
p2615
I505
sS'867'
p2616
I506
sS'866'
p2617
I507
sS'273'
p2618
I508
sS'947'
p2619
I509
sS'938'
p2620
I931
sS'659'
p2621
I482
sS'44'
p2622
I1117
sS'883'
p2623
I511
sS'882'
p2624
I512
sS'881'
p2625
I513
sS'880'
p2626
I514
sS'887'
p2627
I515
sS'886'
p2628
I516
sS'885'
p2629
I517
sS'884'
p2630
I518
sS'928'
p2631
I642
sS'889'
p2632
I519
sS'888'
p2633
I520
sS'1115'
p2634
I1127
sS'657'
p2635
I524
sS'756'
p2636
I1048
sS'599'
p2637
I470
sS'809'
p2638
I858
sS'322'
p2639
I526
sS'323'
p2640
I527
sS'320'
p2641
I528
sS'321'
p2642
I529
sS'326'
p2643
I530
sS'327'
p2644
I531
sS'324'
p2645
I532
sS'325'
p2646
I533
sS'328'
p2647
I534
sS'329'
p2648
I535
sS'562'
p2649
I1053
sS'775'
p2650
I537
sS'774'
p2651
I538
sS'777'
p2652
I539
sS'202'
p2653
I540
sS'205'
p2654
I541
sS'204'
p2655
I542
sS'207'
p2656
I543
sS'206'
p2657
I544
sS'209'
p2658
I545
sS'208'
p2659
I546
sS'779'
p2660
I547
sS'778'
p2661
I548
sS'77'
p2662
I549
sS'76'
p2663
I550
sS'75'
p2664
I551
sS'74'
p2665
I552
sS'73'
p2666
I553
sS'72'
p2667
I554
sS'71'
p2668
I555
sS'70'
p2669
I556
sS'655'
p2670
I557
sS'79'
p2671
I559
sS'78'
p2672
I560
sS'1043'
p2673
I561
sS'1042'
p2674
I562
sS'1041'
p2675
I563
sS'1040'
p2676
I564
sS'1047'
p2677
I565
sS'1046'
p2678
I566
sS'1045'
p2679
I567
sS'1044'
p2680
I568
sS'1049'
p2681
I569
sS'1048'
p2682
I570
sS'413'
p2683
I649
sS'805'
p2684
I870
sS'358'
p2685
I871
sS'1142'
p2686
I574
sS'1143'
p2687
I575
sS'1140'
p2688
I576
sS'1141'
p2689
I577
sS'1146'
p2690
I578
sS'1147'
p2691
I579
sS'1144'
p2692
I3
sS'668'
p2693
I4
sS'667'
p2694
I582
sS'666'
p2695
I583
sS'1148'
p2696
I489
sS'664'
p2697
I21
sS'663'
p2698
I586
sS'662'
p2699
I587
sS'661'
p2700
I588
sS'660'
p2701
I589
sS'215'
p2702
I875
sS'653'
p2703
I591
sS'692'
p2704
I592
sS'693'
p2705
I593
sS'690'
p2706
I594
sS'691'
p2707
I595
sS'696'
p2708
I596
sS'697'
p2709
I597
sS'694'
p2710
I598
sS'695'
p2711
I599
sS'698'
p2712
I600
sS'699'
p2713
I601
sS'222'
p2714
I1067
sS'542'
p2715
I603
sS'543'
p2716
I604
sS'540'
p2717
I605
sS'541'
p2718
I606
sS'546'
p2719
I607
sS'547'
p2720
I608
sS'544'
p2721
I609
sS'545'
p2722
I610
sS'8'
I611
sS'548'
p2723
I612
sS'549'
p2724
I613
sS'598'
p2725
I476
sS'995'
p2726
I616
sS'994'
p2727
I617
sS'997'
p2728
I618
sS'996'
p2729
I619
sS'991'
p2730
I620
sS'990'
p2731
I621
sS'993'
p2732
I622
sS'868'
p2733
I573
sS'999'
p2734
I624
sS'998'
p2735
I625
sS'120'
p2736
I626
sS'121'
p2737
I627
sS'122'
p2738
I628
sS'123'
p2739
I629
sS'124'
p2740
I630
sS'125'
p2741
I328
sS'126'
p2742
I632
sS'127'
p2743
I633
sS'128'
p2744
I634
sS'129'
p2745
I635
sS'219'
p2746
I887
sS'176'
p2747
I637
sS'520'
p2748
I638
sS'528'
p2749
I640
sS'563'
p2750
I1054
sS'1022'
p2751
I1077
sS'464'
p2752
I1130
sS'1011'
p2753
I641
sS'414'
p2754
I329
sS'415'
p2755
I379
sS'416'
p2756
I644
sS'417'
p2757
I645
sS'410'
p2758
I646
sS'411'
p2759
I647
sS'412'
p2760
I648
sS'860'
p2761
I501
sS'920'
p2762
I650
sS'137'
p2763
I309
sS'922'
p2764
I652
sS'923'
p2765
I653
sS'418'
p2766
I415
sS'419'
p2767
I417
sS'926'
p2768
I656
sS'136'
p2769
I331
sS'319'
p2770
I658
sS'318'
p2771
I659
sS'269'
p2772
I939
sS'313'
p2773
I660
sS'312'
p2774
I661
sS'311'
p2775
I662
sS'310'
p2776
I663
sS'317'
p2777
I664
sS'316'
p2778
I665
sS'315'
p2779
I666
sS'314'
p2780
I667
sS'921'
p2781
I651
sS'496'
p2782
I668
sS'1134'
p2783
I669
sS'832'
p2784
I670
sS'833'
p2785
I671
sS'830'
p2786
I672
sS'138'
p2787
I294
sS'836'
p2788
I674
sS'837'
p2789
I675
sS'834'
p2790
I676
sS'835'
p2791
I677
sS'838'
p2792
I678
sS'839'
p2793
I679
sS'3'
I682
sS'725'
p2794
I683
sS'368'
p2795
I684
sS'369'
p2796
I685
sS'366'
p2797
I686
sS'367'
p2798
I687
sS'364'
p2799
I688
sS'365'
p2800
I689
sS'362'
p2801
I690
sS'363'
p2802
I691
sS'360'
p2803
I692
sS'361'
p2804
I693
sS'952'
p2805
I1118
sS'46'
p2806
I1115
sS'380'
p2807
I695
sS'861'
p2808
I500
sS'382'
p2809
I697
sS'383'
p2810
I698
sS'384'
p2811
I699
sS'385'
p2812
I700
sS'386'
p2813
I701
sS'387'
p2814
I702
sS'388'
p2815
I703
sS'389'
p2816
I704
sS'784'
p2817
I705
sS'785'
p2818
I706
sS'786'
p2819
I707
sS'787'
p2820
I708
sS'780'
p2821
I709
sS'781'
p2822
I710
sS'782'
p2823
I711
sS'381'
p2824
I696
sS'148'
p2825
I713
sS'788'
p2826
I714
sS'789'
p2827
I715
sS'605'
p2828
I1094
sS'579'
p2829
I717
sS'578'
p2830
I718
sS'604'
p2831
I1095
sS'573'
p2832
I720
sS'572'
p2833
I721
sS'571'
p2834
I722
sS'570'
p2835
I723
sS'577'
p2836
I724
sS'576'
p2837
I725
sS'575'
p2838
I726
sS'574'
p2839
I727
sS'182'
p2840
I728
sS'61'
p2841
I729
sS'258'
p2842
I730
sS'259'
p2843
I639
sS'64'
p2844
I732
sS'65'
p2845
I733
sS'66'
p2846
I734
sS'67'
p2847
I735
sS'68'
p2848
I614
sS'69'
p2849
I737
sS'250'
p2850
I738
sS'251'
p2851
I739
sS'256'
p2852
I990
sS'629'
p2853
I440
sS'254'
p2854
I742
sS'255'
p2855
I743
sS'157'
p2856
I1100
sS'156'
p2857
I1101
sS'405'
p2858
I746
sS'731'
p2859
I747
sS'730'
p2860
I748
sS'733'
p2861
I749
sS'732'
p2862
I750
sS'735'
p2863
I1041
sS'734'
p2864
I752
sS'737'
p2865
I753
sS'509'
p2866
I754
sS'1032'
p2867
I755
sS'507'
p2868
I2
sS'1030'
p2869
I198
sS'1031'
p2870
I758
sS'1036'
p2871
I759
sS'1037'
p2872
I760
sS'1034'
p2873
I761
sS'1035'
p2874
I762
sS'630'
p2875
I763
sS'631'
p2876
I764
sS'632'
p2877
I765
sS'633'
p2878
I766
sS'469'
p2879
I767
sS'635'
p2880
I768
sS'636'
p2881
I769
sS'637'
p2882
I770
sS'465'
p2883
I771
sS'639'
p2884
I772
sS'1128'
p2885
I773
sS'927'
p2886
I657
sS'461'
p2887
I775
sS'460'
p2888
I776
sS'463'
p2889
I777
sS'462'
p2890
I778
sS'901'
p2891
I779
sS'168'
p2892
I780
sS'169'
p2893
I781
sS'736'
p2894
I782
sS'164'
p2895
I783
sS'165'
p2896
I784
sS'166'
p2897
I785
sS'167'
p2898
I786
sS'160'
p2899
I787
sS'161'
p2900
I788
sS'162'
p2901
I789
sS'163'
p2902
I790
sS'964'
p2903
I791
sS'965'
p2904
I792
sS'966'
p2905
I793
sS'967'
p2906
I794
sS'960'
p2907
I795
sS'961'
p2908
I796
sS'962'
p2909
I797
sS'963'
p2910
I798
sS'783'
p2911
I712
sS'968'
p2912
I799
sS'969'
p2913
I800
sS'1106'
p2914
I801
sS'1107'
p2915
I802
sS'1104'
p2916
I803
sS'1105'
p2917
I804
sS'1102'
p2918
I805
sS'1103'
p2919
I806
sS'1100'
p2920
I807
sS'1101'
p2921
I808
sS'408'
p2922
I809
sS'31'
p2923
I810
sS'1108'
p2924
I811
sS'1109'
p2925
I812
sS'909'
p2926
I889
sS'584'
p2927
I815
sS'1159'
p2928
I918
sS'514'
p2929
I817
sS'1158'
p2930
I834
sS'426'
p2931
I1004
sS'878'
p2932
I821
sS'879'
p2933
I822
sS'876'
p2934
I823
sS'877'
p2935
I824
sS'874'
p2936
I825
sS'875'
p2937
I826
sS'872'
p2938
I827
sS'873'
p2939
I828
sS'870'
p2940
I829
sS'871'
p2941
I830
sS'674'
p2942
I922
sS'597'
p2943
I462
sS'1154'
p2944
I923
sS'9'
I833
sS'1157'
p2945
I924
sS'890'
p2946
I836
sS'891'
p2947
I837
sS'892'
p2948
I838
sS'893'
p2949
I819
sS'894'
p2950
I840
sS'895'
p2951
I841
sS'896'
p2952
I842
sS'897'
p2953
I843
sS'898'
p2954
I844
sS'899'
p2955
I845
sS'646'
p2956
I846
sS'1099'
p2957
I847
sS'649'
p2958
I848
sS'672'
p2959
I928
sS'648'
p2960
I851
sS'673'
p2961
I929
sS'2'
I1085
sS'1086'
p2962
I855
sS'357'
p2963
I856
sS'356'
p2964
I857
sS'355'
p2965
I525
sS'808'
p2966
I681
sS'353'
p2967
I860
sS'352'
p2968
I861
sS'351'
p2969
I862
sS'350'
p2970
I863
sS'803'
p2971
I694
sS'802'
p2972
I865
sS'801'
p2973
I866
sS'800'
p2974
I867
sS'807'
p2975
I868
sS'806'
p2976
I869
sS'359'
p2977
I259
sS'804'
p2978
I572
sS'216'
p2979
I872
sS'217'
p2980
I873
sS'214'
p2981
I88
sS'769'
p2982
I590
sS'212'
p2983
I876
sS'213'
p2984
I877
sS'210'
p2985
I179
sS'211'
p2986
I879
sS'762'
p2987
I880
sS'763'
p2988
I390
sS'760'
p2989
I882
sS'761'
p2990
I883
sS'766'
p2991
I884
sS'767'
p2992
I885
sS'218'
p2993
I631
sS'765'
p2994
I636
sS'957'
p2995
I1121
sS'956'
p2996
I1122
sS'1033'
p2997
I891
sS'1078'
p2998
I893
sS'1079'
p2999
I894
sS'1076'
p3000
I895
sS'1077'
p3001
I896
sS'1074'
p3002
I897
sS'1075'
p3003
I898
sS'1072'
p3004
I899
sS'1073'
p3005
I900
sS'1070'
p3006
I901
sS'831'
p3007
I673
sS'289'
p3008
I903
sS'288'
p3009
I904
sS'4'
I905
sS'281'
p3010
I906
sS'280'
p3011
I907
sS'283'
p3012
I908
sS'282'
p3013
I909
sS'285'
p3014
I910
sS'284'
p3015
I911
sS'287'
p3016
I912
sS'286'
p3017
I913
sS'1094'
p3018
I914
sS'1095'
p3019
I915
sS'1096'
p3020
I916
sS'1097'
p3021
I917
sS'678'
p3022
I816
sS'679'
p3023
I818
sS'1092'
p3024
I920
sS'1093'
p3025
I921
sS'1155'
p3026
I831
sS'675'
p3027
I832
sS'676'
p3028
I835
sS'1156'
p3029
I839
sS'670'
p3030
I813
sS'671'
p3031
I751
sS'1153'
p3032
I850
sS'1152'
p3033
I852
sS'263'
p3034
I930
sS'262'
p3035
I854
sS'261'
p3036
I932
sS'260'
p3037
I933
sS'267'
p3038
I934
sS'266'
p3039
I935
sS'265'
p3040
I936
sS'264'
p3041
I937
sS'1121'
p3042
I938
sS'1098'
p3043
I926
sS'268'
p3044
I892
sS'478'
p3045
I1156
sS'1082'
p3046
I456
sS'60'
p3047
I941
sS'59'
p3048
I942
sS'58'
p3049
I943
sS'55'
p3050
I944
sS'54'
p3051
I945
sS'57'
p3052
I946
sS'56'
p3053
I947
sS'51'
p3054
I948
sS'50'
p3055
I255
sS'53'
p3056
I950
sS'52'
p3057
I951
sS'537'
p3058
I952
sS'536'
p3059
I953
sS'535'
p3060
I954
sS'63'
p3061
I731
sS'533'
p3062
I956
sS'532'
p3063
I957
sS'531'
p3064
I958
sS'530'
p3065
I959
sS'539'
p3066
I961
sS'538'
p3067
I962
sS'987'
p3068
I1058
sS'201'
p3069
I963
sS'988'
p3070
I964
sS'989'
p3071
I965
sS'200'
p3072
I966
sS'982'
p3073
I967
sS'983'
p3074
I968
sS'980'
p3075
I969
sS'981'
p3076
I970
sS'986'
p3077
I971
sS'203'
p3078
I972
sS'984'
p3079
I973
sS'985'
p3080
I974
sS'115'
p3081
I975
sS'252'
p3082
I736
sS'117'
p3083
I977
sS'116'
p3084
I521
sS'111'
p3085
I979
sS'110'
p3086
I980
sS'113'
p3087
I981
sS'253'
p3088
I740
sS'677'
p3089
I925
sS'771'
p3090
I983
sS'119'
p3091
I985
sS'118'
p3092
I986
sS'770'
p3093
I987
sS'647'
p3094
I988
sS'773'
p3095
I989
sS'772'
p3096
I991
sS'1001'
p3097
I1070
sS'257'
p3098
I741
sS'429'
p3099
I993
sS'428'
p3100
I994
sS'534'
p3101
I955
sS'919'
p3102
I995
sS'918'
p3103
I996
sS'354'
p3104
I859
sS'421'
p3105
I33
sS'420'
p3106
I34
sS'423'
p3107
I35
sS'916'
p3108
I38
sS'911'
p3109
I40
sS'424'
p3110
I196
sS'427'
p3111
I47
sS'912'
p3112
I53
sS'308'
p3113
I1005
sS'309'
p3114
I1006
sS'855'
p3115
I1007
sS'300'
p3116
I1008
sS'301'
p3117
I1009
sS'302'
p3118
I1010
sS'303'
p3119
I1011
sS'304'
p3120
I1012
sS'305'
p3121
I1013
sS'306'
p3122
I1014
sS'307'
p3123
I1015
sS'825'
p3124
I1016
sS'665'
p3125
I584
sS'776'
p3126
I978
sS'824'
p3127
I1017
sS'373'
p3128
I1018
sS'847'
p3129
I1019
sS'846'
p3130
I1020
sS'845'
p3131
I1021
sS'372'
p3132
I340
sS'843'
p3133
I1023
sS'842'
p3134
I1024
sS'841'
p3135
I1025
sS'840'
p3136
I1026
sS'1151'
p3137
I1027
sS'821'
p3138
I1028
sS'1090'
p3139
I1029
sS'853'
p3140
I178
sS'849'
p3141
I1030
sS'374'
p3142
I342
sS'823'
p3143
I1032
sS'822'
p3144
I1033
sS'1127'
p3145
I1035
sS'62'
p3146
I949
sS'144'
p3147
I1036
sS'390'
p3148
I1086
sS'1038'
p3149
I1039
sS'1039'
p3150
I1040
sS'568'
p3151
I488
sS'752'
p3152
I169
sS'751'
p3153
I1045
sS'750'
p3154
I1046
sS'757'
p3155
I1047
sS'900'
p3156
I1037
sS'755'
p3157
I1049
sS'754'
p3158
I1050
sS'560'
p3159
I1051
sS'561'
p3160
I1052
sS'759'
p3161
I536
sS'758'
p3162
I330
sS'564'
p3163
I1055
sS'565'
p3164
I1056
sS'566'
p3165
I1057
sS'567'
p3166
I558
sS'739'
p3167
I1059
sS'229'
p3168
I1060
sS'738'
p3169
I756
sS'227'
p3170
I1062
sS'226'
p3171
I1063
sS'225'
p3172
I1064
sS'224'
p3173
I1065
sS'223'
p3174
I1066
sS'504'
p3175
I757
sS'221'
p3176
I1068
sS'220'
p3177
I1069
sS'1025'
p3178
I102
sS'1024'
p3179
I1071
sS'1027'
p3180
I1072
sS'1026'
p3181
I168
sS'1021'
p3182
I1074
sS'1020'
p3183
I1075
sS'1023'
p3184
I1076
sS'114'
p3185
I976
sS'502'
p3186
I1078
sS'1029'
p3187
I1079
sS'391'
p3188
I1042
sS'1089'
p3189
I1081
sS'503'
p3190
I1082
sS'726'
p3191
I1083
sS'727'
p3192
I1084
sS'724'
p3193
I680
sS'89'
p3194
I359
sS'722'
p3195
I1087
sS'723'
p3196
I1088
sS'720'
p3197
I1089
sS'721'
p3198
I1090
sS'501'
p3199
I1091
sS'728'
p3200
I1092
sS'729'
p3201
I1093
sS'151'
p3202
I716
sS'150'
p3203
I719
sS'153'
p3204
I200
sS'152'
p3205
I960
sS'601'
p3206
I384
sS'600'
p3207
I820
sS'603'
p3208
I744
sS'602'
p3209
I745
sS'159'
p3210
I1102
sS'158'
p3211
I1103
sS'112'
p3212
I982
sS'609'
p3213
I1104
sS'608'
p3214
I1105
sS'590'
p3215
I1146
sS'634'
p3216
I1106
sS'500'
p3217
I1107
sS'80'
p3218
I1108
sS'468'
p3219
I1109
sS'959'
p3220
I814
sS'11'
p3221
I864
sS'81'
p3222
I1112
sS'48'
p3223
I1113
sS'49'
p3224
I1114
sS'951'
p3225
I435
sS'950'
p3226
I523
sS'953'
p3227
I992
sS'45'
p3228
I522
sS'42'
p3229
I881
sS'954'
p3230
I1034
sS'40'
p3231
I888
sS'41'
p3232
I890
sS'1111'
p3233
I1123
sS'638'
p3234
I853
sS'1113'
p3235
I1125
sS'1112'
p3236
I1126
sS'5'
I984
sS'1114'
p3237
I1128
sS'1117'
p3238
I1129
sS'1116'
p3239
I571
sS'1119'
p3240
I1131
sS'1118'
p3241
I1132
sS'467'
p3242
I1133
sS'466'
p3243
I774
sS'591'
p3244
I1135
sS'489'
p3245
I1136
sS'488'
p3246
I1137
sS'487'
p3247
I1138
sS'486'
p3248
I1139
sS'485'
p3249
I1140
sS'484'
p3250
I1141
sS'483'
p3251
I1142
sS'482'
p3252
I1143
sS'481'
p3253
I1144
sS'480'
p3254
I1145
sS'955'
p3255
I1119
sS'790'
p3256
I1147
sS'472'
p3257
I1148
sS'473'
p3258
I1149
sS'470'
p3259
I1150
sS'471'
p3260
I1151
sS'476'
p3261
I1152
sS'477'
p3262
I1153
sS'474'
p3263
I1154
sS'475'
p3264
I1155
sS'154'
p3265
I1099
sS'479'
p3266
I1157
sS'506'
p3267
I1158
sa(dp3268
S'11'
p3269
I0
sS'10'
p3270
I1
sS'13'
p3271
I2
sS'12'
p3272
I3
sS'15'
p3273
I4
sS'14'
p3274
I5
sS'17'
p3275
I6
sS'16'
p3276
I7
sS'19'
p3277
I8
sS'18'
p3278
I9
sS'1'
I11
sS'3'
I12
sS'2'
I13
sS'5'
I14
sS'4'
I15
sS'7'
I16
sS'6'
I17
sS'9'
I18
sS'20'
p3279
I10
sS'8'
I19
sa(dp3280
S''
I0
sS'1'
I1
sS'0'
I2
sS'3'
I3
sS'2'
I4
sS'4'
I5
sa(dp3281
S''
I0
sS'10'
p3282
I1
sS'13'
p3283
I2
sS'12'
p3284
I3
sS'15'
p3285
I4
sS'14'
p3286
I5
sS'17'
p3287
I6
sS'19'
p3288
I7
sS'18'
p3289
I9
sS'9'
I19
sS'1'
I11
sS'0'
I12
sS'3'
I13
sS'2'
I14
sS'5'
I15
sS'4'
I16
sS'7'
I17
sS'6'
I18
sS'11'
p3290
I8
sS'20'
p3291
I10
sS'8'
I20
sa(dp3292
S'1'
I0
sS'0'
I1
sS'2'
I2
sa(dp3293
S'\xe4\xbc\x91\xe9\x97\xb2\xe5\xa8\xb1\xe4\xb9\x90'
p3294
I0
sS'\xe8\xb6\x85\xe5\xb8\x82\xe4\xbe\xbf\xe5\x88\xa9\xe5\xba\x97'
p3295
I1
sS'\xe7\xbe\x8e\xe9\xa3\x9f'
p3296
I2
sS'\xe5\x8c\xbb\xe7\x96\x97\xe5\x81\xa5\xe5\xba\xb7'
p3297
I3
sS'\xe8\xb4\xad\xe7\x89\xa9'
p3298
I4
sS'\xe7\xbe\x8e\xe5\x8f\x91/\xe7\xbe\x8e\xe5\xae\xb9/\xe7\xbe\x8e\xe7\x94\xb2'
p3299
I5
sa(dp3300
S'\xe6\x9c\xac\xe5\x9c\xb0\xe8\xb4\xad\xe7\x89\xa9'
p3301
I0
sS'\xe7\xbd\x91\xe5\x90\xa7\xe7\xbd\x91\xe5\x92\x96'
p3302
I1
sS'\xe8\xb6\x85\xe5\xb8\x82'
p3303
I2
sS'\xe7\x81\xab\xe9\x94\x85'
p3304
I10
sS'\xe6\xb1\xa4/\xe7\xb2\xa5/\xe7\x85\xb2/\xe7\xa0\x82\xe9\x94\x85/\xe7\x82\x96\xe8\x8f\x9c'
p3305
I8
sS'\xe4\xb8\xad\xe9\xa4\x90'
p3306
I4
sS'\xe4\xb8\xaa\xe4\xba\xba\xe6\x8a\xa4\xe7\x90\x86'
p3307
I5
sS'\xe7\x83\x98\xe7\x84\x99\xe7\xb3\x95\xe7\x82\xb9'
p3308
I6
sS'\xe5\x85\xb6\xe4\xbb\x96\xe7\xbe\x8e\xe9\xa3\x9f'
p3309
I3
sS'\xe5\xbf\xab\xe9\xa4\x90'
p3310
I9
sS'\xe7\x83\xa7\xe7\x83\xa4'
p3311
I7
sS'\xe4\xbe\xbf\xe5\x88\xa9\xe5\xba\x97'
p3312
I11
sS'\xe5\xb0\x8f\xe5\x90\x83'
p3313
I16
sS'\xe7\xbe\x8e\xe5\xae\xb9\xe7\xbe\x8e\xe5\x8f\x91'
p3314
I13
sS'\xe4\xbc\x91\xe9\x97\xb2\xe9\xa3\x9f\xe5\x93\x81'
p3315
I14
sS'\xe4\xbc\x91\xe9\x97\xb2\xe8\x8c\xb6\xe9\xa5\xae'
p3316
I15
sS'\xe8\x8d\xaf\xe5\xba\x97'
p3317
I12
sa(dp3318
S'\xe8\x9b\x8b\xe7\xb3\x95\n'
p3319
I0
sS'\xe5\x85\xb6\xe5\xae\x83\xe5\x9c\xb0\xe6\x96\xb9\xe8\x8f\x9c\n'
p3320
I1
sS'\xe4\xb8\x9c\xe5\x8c\x97\xe8\x8f\x9c\n'
p3321
I2
sS'\xe4\xb8\xad\xe5\xbc\x8f\xe5\xbf\xab\xe9\xa4\x90\n'
p3322
I3
sS'\xe9\x9d\xa2\xe7\x82\xb9\n'
p3323
I4
sS'\n'
I5
sS'\xe8\x87\xaa\xe5\x8a\xa9\xe9\xa4\x90\n'
p3324
I6
sS'\xe5\x92\x96\xe5\x95\xa1\n'
p3325
I7
sS'\xe9\xba\xbb\xe8\xbe\xa3\xe7\x83\xab/\xe4\xb8\xb2\xe4\xb8\xb2\xe9\xa6\x99\n'
p3326
I32
sS'\xe9\x9d\xa2\xe5\x8c\x85\n'
p3327
I9
sS'\xe7\xb2\xa5\n'
p3328
I10
sS'\xe5\x85\xb6\xe5\xae\x83\xe5\xbf\xab\xe9\xa4\x90\n'
p3329
I11
sS'\xe9\x97\xbd\xe8\x8f\x9c\n'
p3330
I12
sS'\xe6\x97\xa5\xe9\x9f\xa9\xe6\x96\x99\xe7\x90\x86\n'
p3331
I13
sS'\xe5\x85\xb6\xe5\xae\x83\xe7\x83\x98\xe7\x84\x99\xe7\xb3\x95\xe7\x82\xb9\n'
p3332
I14
sS'\xe7\xa0\x82\xe9\x94\x85/\xe7\x85\xb2\xe7\xb1\xbb/\xe7\x82\x96\xe8\x8f\x9c\n'
p3333
I15
sS'\xe8\xa5\xbf\xe9\xa4\x90\n'
p3334
I16
sS'\xe4\xb8\x8a\xe6\xb5\xb7\xe6\x9c\xac\xe5\xb8\xae\xe8\x8f\x9c\n'
p3335
I17
sS'\xe7\x86\x9f\xe9\xa3\x9f\n'
p3336
I19
sS'\xe7\x94\x9f\xe9\xb2\x9c\xe6\xb0\xb4\xe6\x9e\x9c\n'
p3337
I20
sS'\xe8\xa5\xbf\xe5\x8c\x97\xe8\x8f\x9c\n'
p3338
I21
sS'\xe7\xb2\xa4\xe8\x8f\x9c\n'
p3339
I22
sS'\xe5\xb7\x9d\xe8\x8f\x9c\n'
p3340
I23
sS'\xe5\x86\xb0\xe6\xbf\x80\xe5\x87\x8c\n'
p3341
I24
sS'\xe5\xa5\xb6\xe8\x8c\xb6\n'
p3342
I25
sS'\xe5\x85\xb6\xe5\xae\x83\xe4\xbc\x91\xe9\x97\xb2\xe9\xa3\x9f\xe5\x93\x81\n'
p3343
I26
sS'\xe5\x85\xb6\xe5\xae\x83\xe7\x81\xab\xe9\x94\x85\n'
p3344
I27
sS'\xe5\x8f\xb0\xe6\xb9\xbe\xe8\x8f\x9c\n'
p3345
I28
sS'\xe6\xb5\xb7\xe9\xb2\x9c\n'
p3346
I29
sS'\xe5\x85\xb6\xe5\xae\x83\xe5\xb0\x8f\xe5\x90\x83\n'
p3347
I18
sS'\xe6\xb9\x96\xe5\x8c\x97\xe8\x8f\x9c\n'
p3348
I31
sS'\xe8\xa5\xbf\xe5\xbc\x8f\xe5\xbf\xab\xe9\xa4\x90\n'
p3349
I8
sS'\xe5\x85\xb6\xe5\xae\x83\xe7\x83\xa7\xe7\x83\xa4\n'
p3350
I33
sS'\xe9\xa5\xae\xe5\x93\x81/\xe7\x94\x9c\xe7\x82\xb9\n'
p3351
I30
sS'\xe7\xbe\x8e\xe9\xa3\x9f\xe7\x89\xb9\xe4\xba\xa7\n'
p3352
I34
sS'\xe9\x9b\xb6\xe9\xa3\x9f\n'
p3353
I35
sS'\xe9\xa6\x99\xe9\x94\x85/\xe7\x83\xa4\xe9\xb1\xbc\n'
p3354
I36
sS'\xe6\xb1\x9f\xe6\xb5\x99\xe8\x8f\x9c\n'
p3355
I37
sS'\xe6\xb9\x98\xe8\x8f\x9c\n'
p3356
I38
sS'\xe5\x85\xb6\xe4\xbb\x96\xe9\xa4\x90\xe9\xa5\xae\xe7\xbe\x8e\xe9\xa3\x9f\n'
p3357
I39
sS'\xe5\xb7\x9d\xe5\x91\xb3/\xe9\x87\x8d\xe5\xba\x86\xe7\x81\xab\xe9\x94\x85\n'
p3358
I40
sS'\xe7\xb1\xb3\xe7\xb2\x89/\xe7\xb1\xb3\xe7\xba\xbf\n'
p3359
I41
sS'\xe4\xb8\xad\xe5\xbc\x8f\xe7\x83\xa7\xe7\x83\xa4\n'
p3360
I42
sS'\xe5\x92\x96\xe5\x95\xa1\xe5\x8e\x85\n'
p3361
I43
sa.