(lp1
(lp2
I1
aI49
aI885
aI19
aI5
aI3
aI2
aI2
aI15
aI30
aa(lp3
I2
aI56
aI64
aI8
aI0
aI0
aI0
aI1
aI2
aI5
aa(lp4
I3
aI96
aI774
aI14
aI3
aI14
aI1
aI2
aI15
aI25
aa(lp5
I4
aI109
aI380
aI9
aI0
aI0
aI0
aI1
aI2
aI5
aa(lp6
I5
aI9
aI263
aI13
aI4
aI14
aI1
aI2
aI14
aI20
aa(lp7
I6
aI64
aI1139
aI2
aI3
aI11
aI1
aI2
aI6
aI9
aa(lp8
I7
aI27
aI145
aI2
aI3
aI19
aI2
aI2
aI9
aI8
aa(lp9
I8
aI9
aI234
aI7
aI3
aI11
aI1
aI2
aI14
aI20
aa(lp10
I9
aI9
aI1120
aI4
aI5
aI12
aI0
aI1
aI2
aI5
aa(lp11
I10
aI115
aI98
aI1
aI0
aI0
aI1
aI1
aI2
aI5
aa(lp12
I11
aI67
aI134
aI3
aI3
aI11
aI1
aI2
aI16
aI18
aa(lp13
I12
aI59
aI786
aI10
aI1
aI14
aI1
aI2
aI4
aI2
aa(lp14
I13
aI9
aI286
aI17
aI2
aI14
aI1
aI2
aI9
aI3
aa(lp15
I14
aI30
aI862
aI16
aI1
aI16
aI2
aI2
aI9
aI3
aa(lp16
I15
aI80
aI101
aI8
aI0
aI0
aI1
aI1
aI2
aI5
aa(lp17
I16
aI66
aI510
aI6
aI3
aI13
aI2
aI2
aI16
aI18
aa(lp18
I17
aI33
aI707
aI4
aI4
aI17
aI2
aI2
aI9
aI8
aa(lp19
I18
aI121
aI260
aI16
aI5
aI11
aI1
aI2
aI10
aI32
aa(lp20
I19
aI67
aI701
aI0
aI3
aI15
aI2
aI2
aI15
aI30
aa(lp21
I20
aI81
aI251
aI14
aI4
aI13
aI1
aI2
aI8
aI10
aa(lp22
I21
aI67
aI860
aI18
aI3
aI11
aI1
aI2
aI6
aI0
aa(lp23
I22
aI62
aI777
aI17
aI4
aI13
aI2
aI2
aI6
aI9
aa(lp24
I23
aI43
aI645
aI12
aI3
aI12
aI0
aI1
aI11
aI5
aa(lp25
I24
aI88
aI1058
aI3
aI4
aI14
aI0
aI2
aI3
aI16
aa(lp26
I25
aI95
aI354
aI5
aI3
aI19
aI2
aI2
aI9
aI8
aa(lp27
I26
aI33
aI620
aI3
aI1
aI13
aI0
aI2
aI9
aI3
aa(lp28
I27
aI85
aI109
aI13
aI3
aI14
aI0
aI2
aI9
aI3
aa(lp29
I28
aI110
aI975
aI5
aI4
aI16
aI2
aI2
aI9
aI8
aa(lp30
I29
aI81
aI552
aI17
aI1
aI14
aI1
aI2
aI16
aI41
aa(lp31
I30
aI44
aI498
aI16
aI4
aI14
aI2
aI2
aI9
aI8
aa(lp32
I31
aI65
aI571
aI9
aI0
aI0
aI0
aI1
aI2
aI5
aa(lp33
I32
aI9
aI789
aI13
aI5
aI12
aI0
aI1
aI11
aI5
aa(lp34
I33
aI3
aI1159
aI10
aI0
aI0
aI0
aI1
aI2
aI5
aa(lp35
I34
aI87
aI680
aI15
aI3
aI1
aI1
aI2
aI15
aI25
aa(lp36
I35
aI57
aI296
aI9
aI4
aI12
aI1
aI1
aI2
aI5
aa(lp37
I36
aI44
aI795
aI6
aI5
aI12
aI1
aI1
aI2
aI5
aa(lp38
I37
aI67
aI639
aI18
aI3
aI16
aI2
aI2
aI9
aI8
aa(lp39
I38
aI81
aI36
aI13
aI3
aI12
aI1
aI1
aI11
aI5
aa(lp40
I39
aI67
aI205
aI18
aI4
aI18
aI1
aI2
aI14
aI20
aa(lp41
I40
aI49
aI1125
aI9
aI0
aI0
aI1
aI1
aI2
aI5
aa(lp42
I41
aI67
aI1054
aI1
aI3
aI19
aI2
aI2
aI9
aI8
aa(lp43
I42
aI66
aI198
aI11
aI3
aI14
aI1
aI2
aI15
aI25
aa(lp44
I43
aI104
aI102
aI4
aI4
aI13
aI2
aI2
aI9
aI8
aa(lp45
I44
aI19
aI1088
aI10
aI5
aI15
aI2
aI2
aI10
aI40
aa(lp46
I45
aI59
aI436
aI7
aI1
aI12
aI1
aI2
aI4
aI23
aa(lp47
I46
aI87
aI575
aI1
aI2
aI12
aI0
aI1
aI2
aI5
aa(lp48
I47
aI65
aI322
aI17
aI0
aI0
aI0
aI1
aI11
aI5
aa(lp49
I48
aI27
aI516
aI9
aI0
aI0
aI1
aI1
aI2
aI5
aa(lp50
I49
aI37
aI253
aI8
aI3
aI12
aI0
aI1
aI2
aI5
aa(lp51
I50
aI67
aI93
aI5
aI3
aI12
aI2
aI2
aI6
aI9
aa(lp52
I51
aI65
aI659
aI3
aI4
aI13
aI2
aI2
aI9
aI3
aa(lp53
I52
aI27
aI192
aI16
aI3
aI14
aI1
aI2
aI15
aI25
aa(lp54
I53
aI9
aI264
aI13
aI0
aI0
aI0
aI1
aI11
aI5
aa(lp55
I54
aI66
aI423
aI18
aI2
aI12
aI0
aI1
aI2
aI5
aa(lp56
I55
aI67
aI357
aI1
aI3
aI20
aI2
aI2
aI9
aI8
aa(lp57
I56
aI3
aI55
aI5
aI3
aI18
aI2
aI2
aI9
aI8
aa(lp58
I57
aI67
aI229
aI5
aI4
aI20
aI2
aI2
aI9
aI8
aa(lp59
I58
aI9
aI1093
aI8
aI3
aI14
aI0
aI1
aI2
aI5
aa(lp60
I59
aI67
aI229
aI15
aI0
aI0
aI0
aI1
aI11
aI5
aa(lp61
I60
aI3
aI730
aI19
aI3
aI15
aI2
aI2
aI6
aI9
aa(lp62
I61
aI33
aI203
aI15
aI3
aI11
aI1
aI2
aI16
aI4
aa(lp63
I62
aI61
aI872
aI4
aI3
aI17
aI2
aI2
aI9
aI8
aa(lp64
I63
aI88
aI158
aI6
aI0
aI0
aI1
aI1
aI2
aI5
aa(lp65
I64
aI3
aI197
aI11
aI5
aI18
aI1
aI2
aI15
aI24
aa(lp66
I65
aI67
aI731
aI10
aI0
aI0
aI0
aI1
aI2
aI5
aa(lp67
I66
aI59
aI58
aI13
aI1
aI12
aI0
aI1
aI11
aI5
aa(lp68
I67
aI87
aI297
aI16
aI1
aI14
aI1
aI2
aI16
aI4
aa(lp69
I68
aI81
aI490
aI12
aI0
aI0
aI0
aI1
aI11
aI5
aa(lp70
I69
aI87
aI422
aI5
aI3
aI11
aI1
aI0
aI1
aI5
aa(lp71
I70
aI65
aI667
aI4
aI5
aI14
aI2
aI2
aI6
aI0
aa(lp72
I71
aI65
aI761
aI18
aI3
aI14
aI0
aI2
aI6
aI9
aa(lp73
I72
aI81
aI552
aI6
aI5
aI12
aI0
aI1
aI2
aI5
aa(lp74
I73
aI82
aI780
aI7
aI0
aI0
aI1
aI1
aI2
aI5
aa(lp75
I74
aI67
aI898
aI3
aI1
aI11
aI1
aI2
aI9
aI11
aa(lp76
I75
aI85
aI1104
aI11
aI5
aI11
aI1
aI2
aI15
aI25
aa(lp77
I76
aI33
aI687
aI8
aI3
aI11
aI1
aI2
aI6
aI9
aa(lp78
I77
aI59
aI429
aI6
aI1
aI14
aI1
aI2
aI15
aI43
aa(lp79
I78
aI67
aI699
aI19
aI1
aI11
aI1
aI2
aI9
aI3
aa(lp80
I79
aI67
aI1033
aI4
aI4
aI13
aI0
aI2
aI9
aI3
aa(lp81
I80
aI118
aI874
aI6
aI0
aI0
aI1
aI1
aI2
aI5
aa(lp82
I81
aI67
aI943
aI12
aI3
aI12
aI1
aI2
aI14
aI20
aa(lp83
I82
aI81
aI47
aI17
aI1
aI16
aI0
aI2
aI4
aI22
aa(lp84
I83
aI117
aI180
aI3
aI3
aI15
aI0
aI2
aI9
aI8
aa(lp85
I84
aI67
aI697
aI0
aI3
aI13
aI1
aI2
aI6
aI9
aa(lp86
I85
aI82
aI138
aI3
aI3
aI15
aI2
aI2
aI9
aI8
aa(lp87
I86
aI3
aI910
aI8
aI3
aI12
aI0
aI1
aI2
aI5
aa(lp88
I87
aI121
aI122
aI14
aI4
aI11
aI1
aI2
aI9
aI3
aa(lp89
I88
aI88
aI665
aI2
aI3
aI2
aI2
aI2
aI9
aI8
aa(lp90
I89
aI62
aI754
aI6
aI5
aI12
aI0
aI1
aI2
aI5
aa(lp91
I90
aI67
aI507
aI4
aI3
aI18
aI2
aI2
aI6
aI9
aa(lp92
I91
aI121
aI930
aI9
aI0
aI0
aI1
aI1
aI2
aI5
aa(lp93
I92
aI3
aI818
aI8
aI5
aI12
aI0
aI1
aI2
aI5
aa(lp94
I93
aI30
aI813
aI14
aI2
aI11
aI1
aI2
aI9
aI3
aa(lp95
I94
aI30
aI79
aI1
aI3
aI11
aI1
aI2
aI6
aI14
aa(lp96
I95
aI85
aI682
aI15
aI3
aI11
aI1
aI2
aI16
aI4
aa(lp97
I96
aI66
aI65
aI11
aI3
aI14
aI1
aI2
aI16
aI4
aa(lp98
I97
aI114
aI240
aI15
aI3
aI12
aI1
aI2
aI14
aI20
aa(lp99
I98
aI81
aI587
aI3
aI1
aI11
aI0
aI2
aI9
aI3
aa(lp100
I99
aI79
aI692
aI14
aI5
aI11
aI1
aI2
aI14
aI20
aa(lp101
I100
aI87
aI215
aI19
aI3
aI2
aI2
aI2
aI9
aI8
aa(lp102
I101
aI88
aI585
aI14
aI3
aI13
aI1
aI2
aI7
aI42
aa(lp103
I102
aI9
aI914
aI2
aI0
aI0
aI1
aI1
aI2
aI5
aa(lp104
I103
aI65
aI977
aI15
aI1
aI11
aI1
aI2
aI16
aI18
aa(lp105
I104
aI121
aI939
aI2
aI4
aI15
aI2
aI2
aI9
aI8
aa(lp106
I105
aI82
aI15
aI5
aI3
aI17
aI2
aI2
aI9
aI8
aa(lp107
I106
aI81
aI309
aI13
aI5
aI12
aI1
aI1
aI11
aI5
aa(lp108
I107
aI9
aI1093
aI16
aI3
aI13
aI1
aI2
aI15
aI25
aa(lp109
I108
aI67
aI1010
aI19
aI4
aI13
aI2
aI2
aI9
aI8
aa(lp110
I109
aI118
aI622
aI0
aI0
aI0
aI1
aI1
aI11
aI5
aa(lp111
I110
aI65
aI982
aI16
aI0
aI0
aI0
aI1
aI11
aI5
aa(lp112
I111
aI65
aI430
aI18
aI3
aI13
aI2
aI2
aI15
aI30
aa(lp113
I112
aI107
aI204
aI9
aI3
aI12
aI0
aI1
aI2
aI5
aa(lp114
I113
aI33
aI1107
aI11
aI0
aI0
aI1
aI1
aI2
aI5
aa(lp115
I114
aI67
aI134
aI18
aI3
aI4
aI2
aI2
aI9
aI8
aa(lp116
I115
aI9
aI89
aI17
aI4
aI18
aI1
aI2
aI9
aI3
aa(lp117
I116
aI9
aI386
aI13
aI0
aI0
aI1
aI1
aI2
aI5
aa(lp118
I117
aI9
aI523
aI10
aI2
aI13
aI2
aI2
aI4
aI37
aa(lp119
I118
aI65
aI652
aI19
aI4
aI12
aI1
aI2
aI9
aI3
aa(lp120
I119
aI15
aI1087
aI1
aI3
aI14
aI2
aI2
aI9
aI8
aa(lp121
I120
aI9
aI1111
aI5
aI0
aI0
aI1
aI1
aI2
aI5
aa(lp122
I121
aI67
aI406
aI19
aI3
aI13
aI2
aI2
aI9
aI3
aa(lp123
I122
aI67
aI572
aI7
aI3
aI11
aI1
aI2
aI9
aI11
aa(lp124
I123
aI65
aI114
aI1
aI4
aI13
aI1
aI2
aI14
aI20
aa(lp125
I124
aI9
aI1094
aI6
aI3
aI12
aI0
aI1
aI2
aI5
aa(lp126
I125
aI64
aI877
aI0
aI5
aI13
aI2
aI2
aI9
aI8
aa(lp127
I126
aI3
aI112
aI14
aI3
aI12
aI1
aI2
aI16
aI18
aa(lp128
I127
aI66
aI317
aI2
aI1
aI13
aI0
aI2
aI9
aI8
aa(lp129
I128
aI88
aI665
aI10
aI4
aI11
aI2
aI2
aI3
aI16
aa(lp130
I129
aI59
aI46
aI10
aI5
aI12
aI0
aI1
aI2
aI5
aa(lp131
I130
aI87
aI130
aI9
aI5
aI12
aI0
aI1
aI2
aI5
aa(lp132
I131
aI66
aI917
aI4
aI5
aI13
aI1
aI2
aI14
aI20
aa(lp133
I132
aI92
aI768
aI2
aI3
aI14
aI1
aI2
aI9
aI8
aa(lp134
I133
aI81
aI494
aI1
aI4
aI14
aI1
aI2
aI9
aI3
aa(lp135
I134
aI59
aI764
aI11
aI3
aI11
aI1
aI2
aI16
aI18
aa(lp136
I135
aI67
aI828
aI16
aI5
aI16
aI1
aI2
aI15
aI25
aa(lp137
I136
aI66
aI510
aI1
aI3
aI13
aI2
aI2
aI6
aI9
aa(lp138
I137
aI59
aI436
aI4
aI3
aI11
aI1
aI2
aI6
aI9
aa(lp139
I138
aI67
aI642
aI7
aI1
aI16
aI1
aI2
aI16
aI4
aa(lp140
I139
aI67
aI244
aI3
aI3
aI16
aI0
aI2
aI9
aI8
aa(lp141
I140
aI65
aI1043
aI14
aI0
aI0
aI0
aI1
aI11
aI5
aa(lp142
I141
aI65
aI658
aI6
aI0
aI0
aI1
aI1
aI2
aI5
aa(lp143
I142
aI9
aI789
aI13
aI0
aI0
aI0
aI1
aI11
aI5
aa(lp144
I143
aI65
aI476
aI12
aI4
aI14
aI1
aI2
aI9
aI3
aa(lp145
I144
aI67
aI1054
aI14
aI5
aI14
aI1
aI2
aI15
aI25
aa(lp146
I145
aI32
aI988
aI4
aI4
aI15
aI2
aI2
aI9
aI8
aa(lp147
I146
aI121
aI1075
aI8
aI0
aI0
aI0
aI1
aI2
aI5
aa(lp148
I147
aI81
aI552
aI12
aI4
aI12
aI0
aI1
aI11
aI5
aa(lp149
I148
aI66
aI737
aI14
aI0
aI0
aI1
aI1
aI11
aI5
aa(lp150
I149
aI33
aI955
aI12
aI4
aI16
aI1
aI2
aI16
aI18
aa(lp151
I150
aI33
aI1080
aI3
aI5
aI14
aI1
aI2
aI15
aI30
aa(lp152
I151
aI67
aI809
aI18
aI4
aI13
aI0
aI2
aI9
aI8
aa(lp153
I152
aI66
aI557
aI7
aI3
aI11
aI2
aI2
aI14
aI35
aa(lp154
I153
aI63
aI515
aI6
aI0
aI0
aI0
aI1
aI2
aI5
aa(lp155
I154
aI121
aI330
aI11
aI1
aI12
aI1
aI2
aI14
aI35
aa(lp156
I155
aI86
aI635
aI16
aI3
aI17
aI2
aI2
aI9
aI8
aa(lp157
I156
aI93
aI334
aI9
aI0
aI0
aI1
aI1
aI2
aI5
aa(lp158
I157
aI65
aI1154
aI5
aI3
aI17
aI2
aI2
aI9
aI8
aa(lp159
I158
aI88
aI840
aI19
aI3
aI14
aI1
aI2
aI14
aI20
aa(lp160
I159
aI118
aI595
aI4
aI3
aI18
aI2
aI2
aI9
aI8
aa(lp161
I160
aI67
aI153
aI13
aI5
aI12
aI0
aI1
aI11
aI5
aa(lp162
I161
aI87
aI832
aI14
aI4
aI14
aI1
aI2
aI16
aI18
aa(lp163
I162
aI81
aI343
aI13
aI3
aI12
aI1
aI1
aI11
aI5
aa(lp164
I163
aI9
aI778
aI6
aI5
aI12
aI1
aI1
aI2
aI5
aa(lp165
I164
aI66
aI435
aI11
aI3
aI11
aI1
aI2
aI8
aI15
aa(lp166
I165
aI87
aI680
aI17
aI5
aI11
aI1
aI2
aI15
aI30
aa(lp167
I166
aI65
aI632
aI8
aI3
aI16
aI1
aI2
aI3
aI13
aa(lp168
I167
aI59
aI252
aI11
aI5
aI15
aI1
aI2
aI16
aI18
aa(lp169
I168
aI9
aI672
aI1
aI0
aI0
aI1
aI1
aI2
aI5
aa(lp170
I169
aI87
aI434
aI10
aI3
aI15
aI1
aI2
aI4
aI21
aa(lp171
I170
aI109
aI43
aI9
aI5
aI12
aI0
aI1
aI2
aI5
aa(lp172
I171
aI67
aI709
aI19
aI3
aI17
aI2
aI2
aI9
aI8
aa(lp173
I172
aI65
aI1005
aI8
aI5
aI12
aI0
aI1
aI2
aI5
aa(lp174
I173
aI87
aI66
aI7
aI0
aI0
aI0
aI1
aI2
aI5
aa(lp175
I174
aI88
aI936
aI13
aI5
aI13
aI1
aI2
aI14
aI20
aa(lp176
I175
aI66
aI435
aI9
aI5
aI12
aI0
aI1
aI2
aI5
aa(lp177
I176
aI38
aI385
aI17
aI3
aI13
aI1
aI2
aI15
aI25
aa(lp178
I177
aI67
aI415
aI0
aI3
aI15
aI2
aI2
aI9
aI8
aa(lp179
I178
aI67
aI630
aI7
aI0
aI0
aI1
aI1
aI2
aI5
aa(lp180
I179
aI89
aI1136
aI1
aI3
aI13
aI2
aI2
aI9
aI3
aa(lp181
I180
aI82
aI729
aI7
aI0
aI0
aI1
aI1
aI2
aI5
aa(lp182
I181
aI70
aI529
aI5
aI4
aI18
aI2
aI2
aI9
aI8
aa(lp183
I182
aI120
aI455
aI0
aI3
aI14
aI2
aI2
aI9
aI8
aa(lp184
I183
aI65
aI42
aI18
aI3
aI3
aI2
aI2
aI9
aI8
aa(lp185
I184
aI65
aI464
aI6
aI4
aI14
aI1
aI2
aI4
aI1
aa(lp186
I185
aI81
aI522
aI18
aI4
aI13
aI1
aI2
aI14
aI26
aa(lp187
I186
aI82
aI504
aI2
aI3
aI19
aI2
aI2
aI9
aI8
aa(lp188
I187
aI93
aI83
aI19
aI4
aI15
aI2
aI2
aI9
aI8
aa(lp189
I188
aI82
aI990
aI18
aI5
aI13
aI2
aI2
aI15
aI30
aa(lp190
I189
aI117
aI984
aI6
aI0
aI0
aI0
aI1
aI2
aI5
aa(lp191
I190
aI30
aI734
aI5
aI1
aI16
aI2
aI2
aI9
aI8
aa(lp192
I191
aI30
aI531
aI16
aI3
aI16
aI0
aI2
aI9
aI8
aa(lp193
I192
aI57
aI858
aI5
aI4
aI16
aI2
aI2
aI9
aI8
aa(lp194
I193
aI80
aI1070
aI2
aI3
aI19
aI2
aI2
aI9
aI8
aa(lp195
I194
aI67
aI1032
aI14
aI3
aI11
aI1
aI2
aI15
aI25
aa(lp196
I195
aI115
aI98
aI8
aI1
aI16
aI2
aI2
aI3
aI16
aa(lp197
I196
aI30
aI407
aI4
aI1
aI13
aI2
aI2
aI9
aI8
aa(lp198
I197
aI27
aI1063
aI18
aI3
aI14
aI1
aI2
aI6
aI9
aa(lp199
I198
aI87
aI399
aI19
aI1
aI11
aI1
aI2
aI9
aI3
aa(lp200
I199
aI82
aI1034
aI4
aI0
aI0
aI1
aI1
aI2
aI5
aa(lp201
I200
aI67
aI478
aI7
aI1
aI19
aI2
aI2
aI9
aI8
aa(lp202
I201
aI87
aI1053
aI15
aI3
aI12
aI1
aI2
aI16
aI18
aa(lp203
I202
aI33
aI1107
aI11
aI4
aI11
aI1
aI2
aI14
aI20
aa(lp204
I203
aI67
aI356
aI9
aI0
aI0
aI0
aI1
aI2
aI5
aa(lp205
I204
aI90
aI738
aI1
aI3
aI13
aI2
aI2
aI9
aI8
aa(lp206
I205
aI9
aI280
aI18
aI5
aI14
aI0
aI2
aI6
aI0
aa(lp207
I206
aI41
aI353
aI10
aI1
aI11
aI2
aI2
aI4
aI22
aa(lp208
I207
aI65
aI396
aI6
aI3
aI15
aI2
aI2
aI4
aI23
aa(lp209
I208
aI65
aI580
aI6
aI0
aI0
aI1
aI1
aI2
aI5
aa(lp210
I209
aI38
aI743
aI0
aI3
aI13
aI2
aI2
aI15
aI30
aa(lp211
I210
aI66
aI788
aI5
aI3
aI17
aI2
aI2
aI16
aI18
aa(lp212
I211
aI30
aI966
aI3
aI4
aI19
aI2
aI2
aI9
aI8
aa(lp213
I212
aI37
aI995
aI10
aI1
aI11
aI1
aI2
aI4
aI37
aa(lp214
I213
aI88
aI1058
aI11
aI5
aI14
aI1
aI2
aI14
aI20
aa(lp215
I214
aI30
aI1109
aI10
aI1
aI11
aI2
aI2
aI4
aI37
aa(lp216
I215
aI65
aI77
aI15
aI3
aI17
aI1
aI2
aI15
aI25
aa(lp217
I216
aI65
aI376
aI5
aI5
aI13
aI2
aI2
aI6
aI0
aa(lp218
I217
aI9
aI1092
aI2
aI3
aI10
aI2
aI2
aI9
aI8
aa(lp219
I218
aI65
aI1043
aI13
aI0
aI0
aI0
aI1
aI2
aI5
aa(lp220
I219
aI88
aI236
aI0
aI3
aI11
aI1
aI2
aI14
aI20
aa(lp221
I220
aI9
aI378
aI10
aI3
aI14
aI1
aI2
aI4
aI23
aa(lp222
I221
aI66
aI259
aI2
aI3
aI14
aI1
aI2
aI6
aI9
aa(lp223
I222
aI96
aI774
aI5
aI2
aI11
aI0
aI2
aI14
aI35
aa(lp224
I223
aI66
aI198
aI10
aI3
aI18
aI1
aI2
aI10
aI32
aa(lp225
I224
aI88
aI442
aI13
aI4
aI12
aI0
aI1
aI11
aI5
aa(lp226
I225
aI59
aI58
aI18
aI2
aI11
aI1
aI2
aI9
aI3
aa(lp227
I226
aI81
aI928
aI14
aI4
aI17
aI1
aI2
aI9
aI3
aa(lp228
I227
aI80
aI708
aI17
aI3
aI13
aI1
aI2
aI15
aI30
aa(lp229
I228
aI87
aI221
aI2
aI5
aI12
aI0
aI1
aI2
aI5
aa(lp230
I229
aI90
aI881
aI18
aI3
aI13
aI2
aI2
aI9
aI8
aa(lp231
I230
aI121
aI607
aI5
aI0
aI0
aI1
aI1
aI2
aI5
aa(lp232
I231
aI87
aI212
aI6
aI5
aI12
aI0
aI1
aI2
aI5
aa(lp233
I232
aI88
aI841
aI14
aI3
aI12
aI0
aI1
aI11
aI5
aa(lp234
I233
aI9
aI264
aI0
aI3
aI18
aI0
aI2
aI6
aI9
aa(lp235
I234
aI55
aI374
aI14
aI2
aI14
aI1
aI2
aI9
aI3
aa(lp236
I235
aI55
aI775
aI14
aI5
aI18
aI1
aI2
aI15
aI25
aa(lp237
I236
aI82
aI63
aI18
aI4
aI14
aI2
aI2
aI9
aI3
aa(lp238
I237
aI41
aI1137
aI1
aI3
aI11
aI1
aI2
aI6
aI9
aa(lp239
I238
aI65
aI42
aI10
aI4
aI13
aI1
aI2
aI9
aI3
aa(lp240
I239
aI16
aI265
aI7
aI3
aI18
aI2
aI2
aI9
aI8
aa(lp241
I240
aI67
aI544
aI18
aI3
aI1
aI2
aI2
aI9
aI8
aa(lp242
I241
aI67
aI924
aI0
aI3
aI14
aI2
aI2
aI6
aI9
aa(lp243
I242
aI59
aI58
aI2
aI3
aI14
aI1
aI2
aI14
aI20
aa(lp244
I243
aI45
aI202
aI9
aI0
aI0
aI0
aI1
aI2
aI5
aa(lp245
I244
aI81
aI44
aI13
aI3
aI14
aI1
aI2
aI15
aI25
aa(lp246
I245
aI27
aI219
aI17
aI5
aI14
aI1
aI2
aI14
aI35
aa(lp247
I246
aI66
aI324
aI17
aI4
aI11
aI1
aI2
aI16
aI18
aa(lp248
I247
aI66
aI198
aI10
aI3
aI11
aI1
aI3
aI12
aI5
aa(lp249
I248
aI67
aI1019
aI1
aI3
aI12
aI0
aI2
aI6
aI9
aa(lp250
I249
aI59
aI166
aI7
aI3
aI11
aI1
aI2
aI9
aI3
aa(lp251
I250
aI66
aI831
aI10
aI1
aI14
aI1
aI2
aI7
aI42
aa(lp252
I251
aI65
aI94
aI17
aI3
aI14
aI1
aI2
aI9
aI3
aa(lp253
I252
aI30
aI491
aI2
aI3
aI17
aI2
aI2
aI9
aI8
aa(lp254
I253
aI65
aI1150
aI10
aI3
aI13
aI1
aI2
aI4
aI29
aa(lp255
I254
aI33
aI1107
aI11
aI5
aI11
aI1
aI2
aI15
aI25
aa(lp256
I255
aI65
aI538
aI0
aI4
aI11
aI1
aI2
aI9
aI3
aa(lp257
I256
aI41
aI76
aI9
aI3
aI12
aI0
aI1
aI2
aI5
aa(lp258
I257
aI65
aI129
aI17
aI0
aI0
aI1
aI1
aI11
aI5
aa(lp259
I258
aI53
aI159
aI3
aI3
aI20
aI2
aI2
aI9
aI8
aa(lp260
I259
aI82
aI685
aI1
aI3
aI13
aI2
aI2
aI15
aI30
aa(lp261
I260
aI118
aI923
aI4
aI4
aI18
aI2
aI2
aI9
aI8
aa(lp262
I261
aI41
aI1137
aI4
aI4
aI20
aI2
aI2
aI9
aI8
aa(lp263
I262
aI59
aI150
aI18
aI3
aI13
aI1
aI2
aI16
aI18
aa(lp264
I263
aI9
aI1091
aI1
aI0
aI0
aI0
aI1
aI11
aI5
aa(lp265
I264
aI9
aI521
aI19
aI3
aI13
aI1
aI2
aI14
aI20
aa(lp266
I265
aI94
aI394
aI16
aI4
aI13
aI2
aI2
aI9
aI3
aa(lp267
I266
aI79
aI128
aI2
aI3
aI15
aI2
aI2
aI9
aI8
aa(lp268
I267
aI118
aI267
aI17
aI2
aI11
aI1
aI2
aI9
aI3
aa(lp269
I268
aI30
aI531
aI12
aI3
aI12
aI1
aI1
aI11
aI5
aa(lp270
I269
aI67
aI365
aI18
aI1
aI11
aI1
aI2
aI9
aI3
aa(lp271
I270
aI81
aI928
aI14
aI3
aI1
aI1
aI2
aI9
aI3
aa(lp272
I271
aI81
aI488
aI14
aI2
aI11
aI1
aI2
aI9
aI11
aa(lp273
I272
aI9
aI280
aI11
aI5
aI13
aI1
aI2
aI6
aI9
aa(lp274
I273
aI85
aI934
aI2
aI3
aI19
aI2
aI2
aI9
aI8
aa(lp275
I274
aI30
aI733
aI16
aI4
aI16
aI2
aI2
aI9
aI3
aa(lp276
I275
aI81
aI8
aI15
aI3
aI14
aI1
aI2
aI14
aI20
aa(lp277
I276
aI67
aI168
aI8
aI0
aI0
aI0
aI1
aI2
aI5
aa(lp278
I277
aI67
aI1054
aI10
aI3
aI14
aI2
aI2
aI4
aI21
aa(lp279
I278
aI81
aI343
aI19
aI3
aI5
aI2
aI2
aI9
aI8
aa(lp280
I279
aI81
aI228
aI2
aI2
aI20
aI1
aI2
aI9
aI8
aa(lp281
I280
aI66
aI812
aI4
aI3
aI14
aI1
aI2
aI15
aI30
aa(lp282
I281
aI82
aI276
aI2
aI3
aI1
aI2
aI2
aI9
aI8
aa(lp283
I282
aI9
aI378
aI12
aI3
aI12
aI0
aI1
aI11
aI5
aa(lp284
I283
aI64
aI227
aI10
aI5
aI19
aI1
aI2
aI4
aI29
aa(lp285
I284
aI67
aI924
aI18
aI3
aI12
aI1
aI2
aI15
aI30
aa(lp286
I285
aI9
aI629
aI5
aI4
aI8
aI2
aI2
aI9
aI3
aa(lp287
I286
aI88
aI837
aI11
aI4
aI11
aI1
aI2
aI4
aI37
aa(lp288
I287
aI82
aI276
aI4
aI3
aI2
aI2
aI2
aI9
aI8
aa(lp289
I288
aI67
aI906
aI9
aI3
aI14
aI0
aI2
aI3
aI16
aa(lp290
I289
aI30
aI1078
aI18
aI3
aI14
aI1
aI2
aI9
aI3
aa(lp291
I290
aI88
aI141
aI17
aI5
aI12
aI0
aI1
aI11
aI5
aa(lp292
I291
aI67
aI255
aI0
aI3
aI11
aI1
aI2
aI9
aI11
aa(lp293
I292
aI81
aI57
aI12
aI2
aI12
aI1
aI1
aI11
aI5
aa(lp294
I293
aI121
aI122
aI6
aI3
aI12
aI0
aI1
aI2
aI5
aa(lp295
I294
aI87
aI680
aI19
aI3
aI13
aI1
aI2
aI8
aI15
aa(lp296
I295
aI96
aI848
aI11
aI3
aI13
aI1
aI2
aI15
aI25
aa(lp297
I296
aI3
aI845
aI9
aI0
aI0
aI0
aI1
aI2
aI5
aa(lp298
I297
aI94
aI104
aI13
aI4
aI14
aI1
aI2
aI14
aI20
aa(lp299
I298
aI80
aI1020
aI8
aI0
aI0
aI0
aI1
aI2
aI5
aa(lp300
I299
aI9
aI884
aI19
aI3
aI18
aI2
aI2
aI9
aI3
aa(lp301
I300
aI9
aI72
aI0
aI3
aI11
aI1
aI2
aI14
aI20
aa(lp302
I301
aI62
aI486
aI12
aI1
aI12
aI0
aI1
aI11
aI5
aa(lp303
I302
aI66
aI209
aI11
aI2
aI12
aI1
aI2
aI9
aI3
aa(lp304
I303
aI80
aI708
aI4
aI3
aI15
aI2
aI2
aI9
aI8
aa(lp305
I304
aI88
aI969
aI4
aI3
aI4
aI2
aI2
aI9
aI8
aa(lp306
I305
aI81
aI439
aI19
aI3
aI17
aI2
aI2
aI9
aI8
aa(lp307
I306
aI30
aI847
aI12
aI2
aI14
aI1
aI2
aI9
aI3
aa(lp308
I307
aI27
aI1082
aI5
aI3
aI16
aI2
aI2
aI9
aI8
aa(lp309
I308
aI9
aI789
aI3
aI5
aI12
aI1
aI2
aI16
aI41
aa(lp310
I309
aI43
aI645
aI17
aI3
aI14
aI1
aI2
aI9
aI3
aa(lp311
I310
aI30
aI576
aI6
aI0
aI0
aI0
aI1
aI2
aI5
aa(lp312
I311
aI65
aI880
aI14
aI3
aI15
aI2
aI2
aI9
aI3
aa(lp313
I312
aI89
aI1149
aI16
aI4
aI15
aI2
aI2
aI9
aI3
aa(lp314
I313
aI30
aI983
aI13
aI2
aI13
aI1
aI2
aI9
aI3
aa(lp315
I314
aI87
aI399
aI4
aI5
aI14
aI1
aI2
aI15
aI7
aa(lp316
I315
aI67
aI453
aI0
aI3
aI17
aI2
aI2
aI9
aI8
aa(lp317
I316
aI9
aI681
aI13
aI5
aI14
aI1
aI2
aI15
aI25
aa(lp318
I317
aI82
aI902
aI14
aI4
aI11
aI1
aI2
aI16
aI18
aa(lp319
I318
aI87
aI680
aI9
aI3
aI16
aI1
aI2
aI4
aI22
aa(lp320
I319
aI67
aI640
aI11
aI3
aI14
aI1
aI2
aI16
aI4
aa(lp321
I320
aI55
aI337
aI2
aI4
aI7
aI2
aI2
aI9
aI8
aa(lp322
I321
aI9
aI258
aI1
aI1
aI11
aI1
aI2
aI9
aI3
aa(lp323
I322
aI90
aI82
aI12
aI1
aI12
aI1
aI1
aI11
aI5
aa(lp324
I323
aI87
aI680
aI0
aI3
aI1
aI2
aI2
aI9
aI8
aa(lp325
I324
aI9
aI181
aI1
aI3
aI13
aI1
aI2
aI14
aI20
aa(lp326
I325
aI109
aI30
aI19
aI5
aI18
aI2
aI2
aI9
aI8
aa(lp327
I326
aI79
aI929
aI10
aI3
aI14
aI1
aI2
aI10
aI27
aa(lp328
I327
aI67
aI924
aI6
aI4
aI11
aI0
aI2
aI16
aI4
aa(lp329
I328
aI9
aI146
aI3
aI5
aI15
aI2
aI2
aI6
aI0
aa(lp330
I329
aI43
aI940
aI14
aI3
aI12
aI0
aI1
aI11
aI5
aa(lp331
I330
aI87
aI680
aI9
aI3
aI11
aI1
aI2
aI3
aI13
aa(lp332
I331
aI66
aI277
aI11
aI2
aI11
aI1
aI2
aI9
aI3
aa(lp333
I332
aI24
aI785
aI3
aI3
aI17
aI2
aI2
aI9
aI8
aa(lp334
I333
aI67
aI609
aI3
aI3
aI11
aI0
aI2
aI6
aI0
aa(lp335
I334
aI9
aI827
aI13
aI3
aI11
aI1
aI2
aI14
aI20
aa(lp336
I335
aI81
aI47
aI14
aI4
aI17
aI2
aI2
aI9
aI3
aa(lp337
I336
aI67
aI478
aI8
aI1
aI16
aI1
aI2
aI10
aI27
aa(lp338
I337
aI90
aI559
aI1
aI4
aI20
aI2
aI2
aI9
aI8
aa(lp339
I338
aI67
aI1013
aI8
aI4
aI12
aI0
aI1
aI2
aI5
aa(lp340
I339
aI85
aI38
aI6
aI5
aI13
aI1
aI2
aI15
aI43
aa(lp341
I340
aI9
aI760
aI9
aI5
aI11
aI1
aI2
aI14
aI20
aa(lp342
I341
aI59
aI133
aI5
aI3
aI8
aI2
aI2
aI9
aI8
aa(lp343
I342
aI87
aI680
aI13
aI5
aI14
aI1
aI2
aI16
aI18
aa(lp344
I343
aI90
aI536
aI18
aI3
aI15
aI2
aI2
aI9
aI8
aa(lp345
I344
aI81
aI711
aI19
aI3
aI20
aI2
aI2
aI9
aI8
aa(lp346
I345
aI4
aI432
aI5
aI3
aI18
aI2
aI2
aI9
aI8
aa(lp347
I346
aI88
aI837
aI12
aI5
aI12
aI0
aI1
aI11
aI5
aa(lp348
I347
aI31
aI604
aI16
aI3
aI13
aI2
aI2
aI9
aI8
aa(lp349
I348
aI65
aI540
aI8
aI5
aI12
aI0
aI1
aI2
aI5
aa(lp350
I349
aI55
aI599
aI3
aI0
aI0
aI1
aI1
aI2
aI5
aa(lp351
I350
aI65
aI113
aI17
aI0
aI0
aI0
aI1
aI11
aI5
aa(lp352
I351
aI87
aI215
aI17
aI3
aI14
aI1
aI2
aI6
aI9
aa(lp353
I352
aI65
aI139
aI13
aI0
aI0
aI1
aI1
aI11
aI5
aa(lp354
I353
aI65
aI538
aI4
aI5
aI11
aI1
aI2
aI16
aI18
aa(lp355
I354
aI88
aI1014
aI5
aI0
aI0
aI1
aI1
aI2
aI5
aa(lp356
I355
aI87
aI172
aI16
aI3
aI14
aI1
aI2
aI16
aI18
aa(lp357
I356
aI81
aI67
aI0
aI4
aI19
aI2
aI2
aI9
aI8
aa(lp358
I357
aI87
aI96
aI17
aI0
aI0
aI1
aI1
aI2
aI5
aa(lp359
I358
aI67
aI642
aI0
aI3
aI16
aI2
aI2
aI9
aI8
aa(lp360
I359
aI37
aI187
aI2
aI3
aI20
aI2
aI2
aI9
aI8
aa(lp361
I360
aI109
aI612
aI9
aI3
aI12
aI0
aI1
aI2
aI5
aa(lp362
I361
aI87
aI399
aI15
aI4
aI14
aI1
aI2
aI9
aI3
aa(lp363
I362
aI85
aI69
aI12
aI3
aI15
aI0
aI2
aI9
aI3
aa(lp364
I363
aI66
aI277
aI18
aI5
aI12
aI0
aI1
aI2
aI5
aa(lp365
I364
aI90
aI82
aI10
aI2
aI16
aI1
aI2
aI4
aI37
aa(lp366
I365
aI81
aI577
aI2
aI4
aI16
aI2
aI2
aI9
aI8
aa(lp367
I366
aI38
aI390
aI12
aI4
aI11
aI1
aI2
aI14
aI26
aa(lp368
I367
aI67
aI1119
aI7
aI1
aI11
aI1
aI3
aI12
aI5
aa(lp369
I368
aI66
aI209
aI11
aI2
aI12
aI1
aI2
aI9
aI3
aa(lp370
I369
aI41
aI484
aI1
aI3
aI18
aI2
aI2
aI9
aI8
aa(lp371
I370
aI67
aI809
aI19
aI3
aI20
aI2
aI2
aI15
aI30
aa(lp372
I371
aI110
aI1035
aI10
aI0
aI0
aI1
aI1
aI2
aI5
aa(lp373
I372
aI117
aI1050
aI8
aI0
aI0
aI1
aI1
aI2
aI5
aa(lp374
I373
aI11
aI783
aI0
aI3
aI14
aI2
aI2
aI9
aI8
aa(lp375
I374
aI66
aI290
aI11
aI5
aI14
aI1
aI2
aI15
aI25
aa(lp376
I375
aI98
aI320
aI7
aI4
aI13
aI2
aI2
aI16
aI18
aa(lp377
I376
aI43
aI869
aI2
aI3
aI13
aI2
aI2
aI9
aI8
aa(lp378
I377
aI121
aI1075
aI12
aI5
aI12
aI0
aI1
aI11
aI5
aa(lp379
I378
aI87
aI669
aI1
aI3
aI16
aI2
aI2
aI9
aI3
aa(lp380
I379
aI9
aI523
aI10
aI1
aI14
aI1
aI2
aI4
aI22
aa(lp381
I380
aI27
aI426
aI5
aI3
aI2
aI2
aI2
aI9
aI8
aa(lp382
I381
aI9
aI303
aI7
aI4
aI11
aI2
aI2
aI14
aI20
aa(lp383
I382
aI9
aI849
aI4
aI3
aI13
aI2
aI2
aI14
aI20
aa(lp384
I383
aI9
aI897
aI14
aI5
aI13
aI1
aI2
aI9
aI3
aa(lp385
I384
aI67
aI642
aI8
aI4
aI11
aI1
aI2
aI4
aI22
aa(lp386
I385
aI121
aI578
aI2
aI1
aI14
aI0
aI2
aI9
aI8
aa(lp387
I386
aI67
aI781
aI1
aI3
aI17
aI2
aI2
aI9
aI8
aa(lp388
I387
aI9
aI1091
aI2
aI3
aI14
aI1
aI2
aI9
aI8
aa(lp389
I388
aI65
aI1038
aI2
aI3
aI13
aI1
aI2
aI6
aI9
aa(lp390
I389
aI67
aI779
aI14
aI3
aI12
aI1
aI2
aI9
aI3
aa(lp391
I390
aI65
aI534
aI15
aI3
aI13
aI1
aI2
aI15
aI25
aa(lp392
I391
aI67
aI1036
aI4
aI4
aI19
aI2
aI2
aI9
aI8
aa(lp393
I392
aI65
aI160
aI17
aI0
aI0
aI0
aI1
aI11
aI5
aa(lp394
I393
aI30
aI1052
aI9
aI4
aI12
aI0
aI1
aI2
aI5
aa(lp395
I394
aI40
aI689
aI13
aI3
aI16
aI1
aI2
aI15
aI25
aa(lp396
I395
aI67
aI662
aI1
aI3
aI18
aI2
aI2
aI9
aI8
aa(lp397
I396
aI9
aI1120
aI7
aI5
aI13
aI1
aI2
aI3
aI39
aa(lp398
I397
aI67
aI356
aI4
aI3
aI14
aI0
aI2
aI6
aI9
aa(lp399
I398
aI65
aI376
aI18
aI3
aI13
aI2
aI2
aI9
aI8
aa(lp400
I399
aI38
aI743
aI7
aI3
aI8
aI2
aI2
aI9
aI8
aa(lp401
I400
aI110
aI965
aI4
aI0
aI0
aI1
aI1
aI2
aI5
aa(lp402
I401
aI94
aI811
aI5
aI1
aI12
aI1
aI2
aI14
aI35
aa(lp403
I402
aI67
aI679
aI19
aI3
aI18
aI2
aI2
aI15
aI30
aa(lp404
I403
aI3
aI730
aI10
aI4
aI15
aI1
aI2
aI4
aI23
aa(lp405
I404
aI67
aI191
aI2
aI3
aI17
aI2
aI2
aI9
aI8
aa(lp406
I405
aI3
aI732
aI15
aI4
aI12
aI1
aI1
aI11
aI5
aa(lp407
I406
aI9
aI485
aI13
aI3
aI11
aI1
aI2
aI9
aI3
aa(lp408
I407
aI67
aI976
aI3
aI3
aI18
aI2
aI2
aI6
aI9
aa(lp409
I408
aI11
aI666
aI10
aI0
aI0
aI0
aI1
aI2
aI5
aa(lp410
I409
aI66
aI1027
aI1
aI2
aI12
aI0
aI1
aI2
aI5
aa(lp411
I410
aI88
aI100
aI13
aI3
aI11
aI1
aI2
aI15
aI25
aa(lp412
I411
aI87
aI399
aI14
aI3
aI11
aI1
aI2
aI16
aI18
aa(lp413
I412
aI81
aI29
aI4
aI4
aI11
aI1
aI2
aI4
aI21
aa(lp414
I413
aI65
aI574
aI3
aI4
aI16
aI1
aI2
aI9
aI3
aa(lp415
I414
aI121
aI702
aI8
aI5
aI12
aI0
aI1
aI2
aI5
aa(lp416
I415
aI67
aI924
aI14
aI1
aI12
aI1
aI2
aI16
aI4
aa(lp417
I416
aI30
aI1052
aI8
aI3
aI13
aI1
aI2
aI3
aI16
aa(lp418
I417
aI116
aI1056
aI2
aI5
aI16
aI2
aI2
aI9
aI8
aa(lp419
I418
aI38
aI570
aI5
aI3
aI19
aI2
aI2
aI9
aI8
aa(lp420
I419
aI81
aI686
aI7
aI3
aI14
aI2
aI2
aI9
aI8
aa(lp421
I420
aI81
aI327
aI12
aI5
aI12
aI0
aI1
aI11
aI5
aa(lp422
I421
aI27
aI214
aI10
aI1
aI14
aI2
aI2
aI7
aI42
aa(lp423
I422
aI94
aI1012
aI7
aI3
aI18
aI0
aI2
aI14
aI20
aa(lp424
I423
aI66
aI1128
aI15
aI3
aI13
aI1
aI2
aI15
aI25
aa(lp425
I424
aI81
aI465
aI7
aI1
aI12
aI0
aI1
aI2
aI5
aa(lp426
I425
aI67
aI809
aI8
aI3
aI16
aI1
aI2
aI4
aI21
aa(lp427
I426
aI67
aI229
aI7
aI4
aI14
aI1
aI2
aI16
aI18
aa(lp428
I427
aI67
aI642
aI10
aI3
aI14
aI1
aI2
aI3
aI13
aa(lp429
I428
aI33
aI1103
aI13
aI4
aI11
aI1
aI2
aI15
aI30
aa(lp430
I429
aI54
aI6
aI5
aI3
aI16
aI2
aI2
aI9
aI8
aa(lp431
I430
aI30
aI195
aI14
aI0
aI0
aI1
aI1
aI11
aI5
aa(lp432
I431
aI57
aI913
aI18
aI4
aI15
aI2
aI2
aI9
aI8
aa(lp433
I432
aI79
aI952
aI7
aI3
aI14
aI1
aI2
aI15
aI30
aa(lp434
I433
aI30
aI733
aI1
aI4
aI12
aI0
aI1
aI2
aI5
aa(lp435
I434
aI66
aI269
aI10
aI1
aI12
aI1
aI2
aI4
aI31
aa(lp436
I435
aI55
aI99
aI8
aI0
aI0
aI0
aI1
aI2
aI5
aa(lp437
I436
aI66
aI608
aI19
aI3
aI19
aI2
aI2
aI9
aI8
aa(lp438
I437
aI30
aI562
aI19
aI2
aI11
aI1
aI2
aI9
aI3
aa(lp439
I438
aI9
aI1120
aI3
aI3
aI12
aI1
aI0
aI1
aI5
aa(lp440
I439
aI118
aI45
aI3
aI1
aI14
aI1
aI2
aI4
aI37
aa(lp441
I440
aI9
aI131
aI17
aI0
aI0
aI1
aI1
aI11
aI5
aa(lp442
I441
aI67
aI427
aI8
aI3
aI12
aI0
aI1
aI2
aI5
aa(lp443
I442
aI109
aI1123
aI0
aI3
aI20
aI2
aI2
aI9
aI8
aa(lp444
I443
aI67
aI1061
aI2
aI4
aI11
aI1
aI2
aI10
aI32
aa(lp445
I444
aI117
aI177
aI4
aI3
aI11
aI1
aI2
aI14
aI20
aa(lp446
I445
aI66
aI37
aI16
aI4
aI11
aI1
aI2
aI3
aI39
aa(lp447
I446
aI28
aI482
aI9
aI5
aI12
aI0
aI1
aI2
aI5
aa(lp448
I447
aI81
aI552
aI14
aI1
aI15
aI2
aI2
aI9
aI3
aa(lp449
I448
aI65
aI916
aI17
aI0
aI0
aI0
aI1
aI11
aI5
aa(lp450
I449
aI88
aI1129
aI6
aI3
aI11
aI1
aI2
aI15
aI24
aa(lp451
I450
aI117
aI782
aI5
aI0
aI0
aI1
aI1
aI2
aI5
aa(lp452
I451
aI9
aI405
aI10
aI5
aI18
aI2
aI2
aI10
aI40
aa(lp453
I452
aI9
aI756
aI16
aI0
aI0
aI1
aI1
aI2
aI5
aa(lp454
I453
aI67
aI830
aI4
aI3
aI14
aI1
aI2
aI9
aI11
aa(lp455
I454
aI81
aI1124
aI13
aI5
aI12
aI1
aI1
aI11
aI5
aa(lp456
I455
aI9
aI264
aI6
aI3
aI18
aI2
aI2
aI14
aI20
aa(lp457
I456
aI81
aI257
aI16
aI4
aI15
aI2
aI2
aI9
aI8
aa(lp458
I457
aI9
aI250
aI16
aI3
aI11
aI1
aI2
aI3
aI13
aa(lp459
I458
aI85
aI767
aI5
aI4
aI20
aI2
aI2
aI9
aI8
aa(lp460
I459
aI87
aI673
aI10
aI1
aI14
aI1
aI2
aI3
aI6
aa(lp461
I460
aI9
aI261
aI15
aI4
aI14
aI1
aI2
aI4
aI1
aa(lp462
I461
aI65
aI86
aI4
aI3
aI12
aI0
aI2
aI6
aI9
aa(lp463
I462
aI85
aI23
aI19
aI3
aI16
aI2
aI2
aI9
aI8
aa(lp464
I463
aI66
aI861
aI7
aI0
aI0
aI1
aI1
aI2
aI5
aa(lp465
I464
aI65
aI696
aI1
aI3
aI16
aI2
aI2
aI9
aI8
aa(lp466
I465
aI67
aI346
aI8
aI3
aI12
aI0
aI1
aI2
aI5
aa(lp467
I466
aI66
aI1007
aI9
aI3
aI13
aI1
aI2
aI15
aI30
aa(lp468
I467
aI110
aI965
aI6
aI0
aI0
aI0
aI1
aI2
aI5
aa(lp469
I468
aI81
aI757
aI2
aI3
aI17
aI2
aI2
aI9
aI8
aa(lp470
I469
aI65
aI696
aI14
aI3
aI11
aI1
aI2
aI9
aI3
aa(lp471
I470
aI67
aI639
aI17
aI5
aI11
aI1
aI2
aI16
aI18
aa(lp472
I471
aI87
aI399
aI1
aI3
aI11
aI1
aI2
aI14
aI34
aa(lp473
I472
aI87
aI377
aI18
aI5
aI3
aI2
aI2
aI9
aI8
aa(lp474
I473
aI65
aI916
aI14
aI4
aI12
aI1
aI2
aI9
aI3
aa(lp475
I474
aI9
aI797
aI17
aI3
aI12
aI1
aI2
aI14
aI20
aa(lp476
I475
aI81
aI155
aI7
aI3
aI12
aI0
aI1
aI2
aI5
aa(lp477
I476
aI9
aI378
aI18
aI3
aI11
aI1
aI2
aI16
aI18
aa(lp478
I477
aI9
aI287
aI0
aI4
aI11
aI1
aI2
aI16
aI4
aa(lp479
I478
aI30
aI810
aI5
aI3
aI14
aI2
aI2
aI14
aI20
aa(lp480
I479
aI65
aI727
aI7
aI0
aI0
aI1
aI1
aI2
aI5
aa(lp481
I480
aI107
aI664
aI4
aI4
aI16
aI2
aI2
aI9
aI8
aa(lp482
I481
aI66
aI776
aI18
aI5
aI12
aI0
aI1
aI2
aI5
aa(lp483
I482
aI5
aI925
aI4
aI3
aI17
aI2
aI2
aI9
aI8
aa(lp484
I483
aI81
aI473
aI15
aI5
aI12
aI1
aI1
aI11
aI5
aa(lp485
I484
aI87
aI796
aI10
aI5
aI14
aI1
aI2
aI14
aI35
aa(lp486
I485
aI9
aI181
aI3
aI1
aI14
aI1
aI2
aI14
aI20
aa(lp487
I486
aI82
aI398
aI15
aI0
aI0
aI1
aI1
aI11
aI5
aa(lp488
I487
aI67
aI453
aI4
aI3
aI11
aI2
aI2
aI14
aI20
aa(lp489
I488
aI65
aI1141
aI1
aI0
aI0
aI1
aI1
aI2
aI5
aa(lp490
I489
aI88
aI1029
aI15
aI2
aI12
aI0
aI1
aI11
aI5
aa(lp491
I490
aI56
aI451
aI7
aI5
aI11
aI1
aI2
aI15
aI24
aa(lp492
I491
aI65
aI94
aI9
aI2
aI12
aI0
aI1
aI2
aI5
aa(lp493
I492
aI87
aI377
aI19
aI5
aI12
aI0
aI1
aI11
aI5
aa(lp494
I493
aI33
aI10
aI11
aI4
aI12
aI1
aI2
aI6
aI9
aa(lp495
I494
aI65
aI889
aI10
aI3
aI14
aI0
aI5
aI13
aI5
aa(lp496
I495
aI81
aI552
aI6
aI2
aI14
aI1
aI2
aI9
aI3
aa(lp497
I496
aI67
aI478
aI1
aI3
aI14
aI1
aI2
aI16
aI18
aa(lp498
I497
aI66
aI606
aI7
aI4
aI11
aI2
aI2
aI16
aI18
aa(lp499
I498
aI87
aI1126
aI15
aI3
aI14
aI1
aI2
aI14
aI20
aa(lp500
I499
aI22
aI163
aI5
aI3
aI15
aI2
aI2
aI9
aI8
aa(lp501
I500
aI9
aI264
aI10
aI4
aI15
aI2
aI2
aI7
aI42
aa(lp502
I501
aI85
aI528
aI11
aI5
aI11
aI1
aI2
aI15
aI30
aa(lp503
I502
aI33
aI620
aI2
aI3
aI19
aI2
aI2
aI9
aI8
aa(lp504
I503
aI82
aI48
aI2
aI4
aI13
aI0
aI2
aI9
aI3
aa(lp505
I504
aI94
aI650
aI16
aI5
aI12
aI1
aI1
aI11
aI5
aa(lp506
I505
aI81
aI932
aI12
aI5
aI12
aI1
aI1
aI11
aI5
aa(lp507
I506
aI65
aI632
aI4
aI3
aI11
aI0
aI2
aI6
aI9
aa(lp508
I507
aI121
aI425
aI13
aI3
aI16
aI1
aI2
aI14
aI20
aa(lp509
I508
aI65
aI836
aI16
aI0
aI0
aI0
aI1
aI11
aI5
aa(lp510
I509
aI96
aI1135
aI7
aI4
aI13
aI2
aI2
aI16
aI18
aa(lp511
I510
aI88
aI969
aI15
aI5
aI12
aI0
aI1
aI11
aI5
aa(lp512
I511
aI48
aI447
aI5
aI3
aI8
aI2
aI2
aI9
aI8
aa(lp513
I512
aI66
aI1024
aI11
aI3
aI14
aI1
aI2
aI15
aI25
aa(lp514
I513
aI65
aI367
aI14
aI3
aI13
aI1
aI2
aI16
aI4
aa(lp515
I514
aI9
aI884
aI0
aI4
aI11
aI1
aI2
aI14
aI20
aa(lp516
I515
aI44
aI660
aI13
aI2
aI12
aI1
aI1
aI11
aI5
aa(lp517
I516
aI82
aI922
aI14
aI4
aI11
aI1
aI2
aI16
aI18
aa(lp518
I517
aI82
aI902
aI6
aI5
aI12
aI0
aI1
aI2
aI5
aa(lp519
I518
aI38
aI452
aI3
aI3
aI11
aI0
aI2
aI6
aI9
aa(lp520
I519
aI67
aI864
aI0
aI3
aI16
aI2
aI2
aI9
aI8
aa(lp521
I520
aI52
aI493
aI14
aI3
aI12
aI0
aI1
aI11
aI5
aa(lp522
I521
aI67
aI478
aI2
aI1
aI13
aI2
aI2
aI9
aI8
aa(lp523
I522
aI30
aI991
aI10
aI4
aI18
aI2
aI2
aI4
aI37
aa(lp524
I523
aI117
aI766
aI6
aI1
aI12
aI0
aI2
aI9
aI11
aa(lp525
I524
aI9
aI378
aI17
aI3
aI12
aI1
aI2
aI16
aI18
aa(lp526
I525
aI81
aI335
aI3
aI3
aI13
aI2
aI2
aI14
aI20
aa(lp527
I526
aI117
aI1067
aI3
aI3
aI17
aI2
aI2
aI9
aI8
aa(lp528
I527
aI9
aI303
aI18
aI3
aI11
aI1
aI2
aI16
aI4
aa(lp529
I528
aI59
aI723
aI8
aI3
aI12
aI0
aI1
aI2
aI5
aa(lp530
I529
aI87
aI527
aI1
aI1
aI11
aI1
aI2
aI9
aI3
aa(lp531
I530
aI30
aI847
aI12
aI2
aI18
aI1
aI2
aI9
aI3
aa(lp532
I531
aI89
aI753
aI2
aI3
aI19
aI2
aI2
aI9
aI8
aa(lp533
I532
aI9
aI89
aI18
aI3
aI12
aI1
aI2
aI14
aI20
aa(lp534
I533
aI30
aI1109
aI12
aI0
aI0
aI1
aI1
aI11
aI5
aa(lp535
I534
aI9
aI1093
aI0
aI3
aI16
aI0
aI2
aI15
aI24
aa(lp536
I535
aI80
aI942
aI9
aI0
aI0
aI0
aI1
aI2
aI5
aa(lp537
I536
aI67
aI545
aI0
aI0
aI0
aI1
aI1
aI2
aI5
aa(lp538
I537
aI73
aI547
aI5
aI3
aI16
aI0
aI2
aI9
aI8
aa(lp539
I538
aI65
aI1130
aI1
aI3
aI11
aI1
aI2
aI15
aI24
aa(lp540
I539
aI121
aI1
aI18
aI3
aI16
aI2
aI2
aI9
aI8
aa(lp541
I540
aI88
aI174
aI16
aI5
aI12
aI1
aI1
aI2
aI5
aa(lp542
I541
aI88
aI239
aI13
aI5
aI12
aI0
aI1
aI11
aI5
aa(lp543
I542
aI9
aI908
aI18
aI1
aI11
aI1
aI2
aI9
aI3
aa(lp544
I543
aI87
aI399
aI13
aI3
aI11
aI1
aI2
aI16
aI18
aa(lp545
I544
aI27
aI418
aI1
aI3
aI16
aI1
aI2
aI16
aI18
aa(lp546
I545
aI81
aI228
aI18
aI4
aI11
aI1
aI2
aI14
aI35
aa(lp547
I546
aI90
aI1122
aI1
aI3
aI16
aI2
aI2
aI9
aI8
aa(lp548
I547
aI33
aI10
aI11
aI3
aI11
aI1
aI2
aI15
aI30
aa(lp549
I548
aI67
aI1054
aI1
aI3
aI18
aI2
aI2
aI9
aI8
aa(lp550
I549
aI38
aI385
aI6
aI5
aI13
aI1
aI2
aI6
aI9
aa(lp551
I550
aI67
aI1110
aI5
aI3
aI11
aI1
aI2
aI10
aI32
aa(lp552
I551
aI67
aI554
aI1
aI4
aI11
aI0
aI2
aI6
aI9
aa(lp553
I552
aI9
aI740
aI18
aI4
aI14
aI1
aI2
aI16
aI4
aa(lp554
I553
aI53
aI958
aI3
aI0
aI0
aI1
aI1
aI2
aI5
aa(lp555
I554
aI121
aI35
aI10
aI4
aI14
aI1
aI2
aI3
aI6
aa(lp556
I555
aI9
aI131
aI16
aI5
aI14
aI1
aI2
aI14
aI20
aa(lp557
I556
aI88
aI170
aI14
aI4
aI12
aI0
aI1
aI11
aI5
aa(lp558
I557
aI81
aI57
aI16
aI3
aI4
aI1
aI2
aI9
aI3
aa(lp559
I558
aI81
aI800
aI16
aI4
aI16
aI1
aI2
aI14
aI20
aa(lp560
I559
aI121
aI122
aI12
aI4
aI11
aI1
aI2
aI9
aI3
aa(lp561
I560
aI66
aI915
aI8
aI3
aI17
aI2
aI2
aI16
aI18
aa(lp562
I561
aI82
aI456
aI11
aI0
aI0
aI1
aI1
aI2
aI5
aa(lp563
I562
aI9
aI378
aI17
aI3
aI12
aI1
aI2
aI4
aI1
aa(lp564
I563
aI119
aI95
aI1
aI3
aI14
aI2
aI2
aI9
aI8
aa(lp565
I564
aI59
aI762
aI7
aI4
aI19
aI2
aI2
aI9
aI8
aa(lp566
I565
aI67
aI406
aI19
aI3
aI17
aI2
aI2
aI9
aI8
aa(lp567
I566
aI55
aI817
aI3
aI3
aI17
aI2
aI2
aI9
aI8
aa(lp568
I567
aI65
aI617
aI14
aI0
aI0
aI1
aI1
aI11
aI5
aa(lp569
I568
aI49
aI1105
aI5
aI3
aI17
aI2
aI2
aI9
aI8
aa(lp570
I569
aI121
aI851
aI13
aI4
aI11
aI1
aI2
aI6
aI9
aa(lp571
I570
aI49
aI899
aI17
aI3
aI3
aI2
aI2
aI9
aI8
aa(lp572
I571
aI67
aI679
aI17
aI4
aI13
aI1
aI2
aI9
aI3
aa(lp573
I572
aI9
aI1093
aI17
aI5
aI17
aI1
aI2
aI15
aI25
aa(lp574
I573
aI79
aI475
aI4
aI5
aI16
aI2
aI2
aI9
aI8
aa(lp575
I574
aI67
aI1032
aI8
aI3
aI11
aI1
aI2
aI3
aI13
aa(lp576
I575
aI9
aI1091
aI1
aI1
aI14
aI1
aI2
aI9
aI3
aa(lp577
I576
aI1
aI438
aI2
aI3
aI16
aI2
aI2
aI9
aI8
aa(lp578
I577
aI118
aI437
aI10
aI0
aI0
aI0
aI1
aI2
aI5
aa(lp579
I578
aI81
aI343
aI12
aI4
aI12
aI1
aI1
aI11
aI5
aa(lp580
I579
aI67
aI1113
aI4
aI4
aI13
aI1
aI2
aI9
aI11
aa(lp581
I580
aI59
aI759
aI8
aI3
aI12
aI0
aI1
aI2
aI5
aa(lp582
I581
aI67
aI1023
aI13
aI5
aI12
aI0
aI1
aI11
aI5
aa(lp583
I582
aI82
aI421
aI14
aI3
aI11
aI1
aI2
aI15
aI25
aa(lp584
I583
aI66
aI435
aI2
aI4
aI16
aI2
aI2
aI9
aI8
aa(lp585
I584
aI18
aI593
aI6
aI2
aI12
aI0
aI1
aI2
aI5
aa(lp586
I585
aI67
aI544
aI16
aI3
aI13
aI2
aI2
aI15
aI30
aa(lp587
I586
aI87
aI680
aI19
aI3
aI13
aI1
aI2
aI16
aI4
aa(lp588
I587
aI19
aI74
aI8
aI0
aI0
aI0
aI1
aI2
aI5
aa(lp589
I588
aI32
aI84
aI10
aI1
aI11
aI1
aI2
aI4
aI36
aa(lp590
I589
aI118
aI1157
aI7
aI3
aI16
aI2
aI2
aI9
aI8
aa(lp591
I590
aI121
aI122
aI0
aI2
aI12
aI1
aI1
aI2
aI5
aa(lp592
I591
aI91
aI931
aI5
aI3
aI15
aI2
aI2
aI9
aI8
aa(lp593
I592
aI38
aI1079
aI6
aI0
aI0
aI0
aI1
aI2
aI5
aa(lp594
I593
aI87
aI399
aI18
aI3
aI17
aI1
aI2
aI14
aI26
aa(lp595
I594
aI85
aI23
aI3
aI3
aI14
aI0
aI2
aI15
aI25
aa(lp596
I595
aI9
aI386
aI11
aI5
aI13
aI1
aI2
aI15
aI25
aa(lp597
I596
aI57
aI1055
aI2
aI4
aI13
aI2
aI2
aI9
aI8
aa(lp598
I597
aI87
aI96
aI1
aI3
aI14
aI1
aI2
aI6
aI9
aa(lp599
I598
aI65
aI535
aI16
aI0
aI0
aI1
aI1
aI11
aI5
aa(lp600
I599
aI9
aI275
aI7
aI3
aI12
aI1
aI2
aI14
aI20
aa(lp601
I600
aI67
aI906
aI2
aI3
aI18
aI1
aI2
aI9
aI11
aa(lp602
I601
aI3
aI1159
aI10
aI0
aI0
aI1
aI1
aI2
aI5
aa(lp603
I602
aI30
aI991
aI13
aI0
aI0
aI0
aI1
aI11
aI5
aa(lp604
I603
aI9
aI865
aI12
aI0
aI0
aI0
aI1
aI11
aI5
aa(lp605
I604
aI67
aI168
aI4
aI2
aI12
aI1
aI2
aI9
aI3
aa(lp606
I605
aI115
aI1022
aI6
aI0
aI0
aI0
aI1
aI2
aI5
aa(lp607
I606
aI56
aI350
aI9
aI0
aI0
aI0
aI1
aI2
aI5
aa(lp608
I607
aI9
aI835
aI1
aI4
aI14
aI1
aI2
aI14
aI20
aa(lp609
I608
aI118
aI3
aI6
aI5
aI12
aI1
aI1
aI2
aI5
aa(lp610
I609
aI117
aI586
aI5
aI0
aI0
aI1
aI1
aI2
aI5
aa(lp611
I610
aI19
aI957
aI3
aI3
aI17
aI2
aI2
aI9
aI8
aa(lp612
I611
aI81
aI242
aI0
aI0
aI0
aI1
aI1
aI2
aI5
aa(lp613
I612
aI9
aI850
aI15
aI3
aI11
aI1
aI2
aI14
aI26
aa(lp614
I613
aI90
aI648
aI6
aI3
aI12
aI1
aI1
aI2
aI5
aa(lp615
I614
aI67
aI948
aI19
aI3
aI15
aI2
aI2
aI9
aI3
aa(lp616
I615
aI38
aI1079
aI2
aI3
aI16
aI2
aI2
aI9
aI8
aa(lp617
I616
aI30
aI194
aI8
aI4
aI13
aI1
aI2
aI4
aI22
aa(lp618
I617
aI33
aI1107
aI13
aI5
aI11
aI1
aI2
aI15
aI25
aa(lp619
I618
aI67
aI554
aI13
aI5
aI12
aI0
aI1
aI11
aI5
aa(lp620
I619
aI30
aI966
aI10
aI2
aI15
aI2
aI2
aI7
aI42
aa(lp621
I620
aI67
aI662
aI15
aI3
aI14
aI1
aI2
aI6
aI0
aa(lp622
I621
aI81
aI928
aI12
aI2
aI11
aI1
aI2
aI9
aI3
aa(lp623
I622
aI58
aI951
aI5
aI4
aI15
aI2
aI2
aI9
aI8
aa(lp624
I623
aI65
aI51
aI7
aI3
aI13
aI1
aI2
aI9
aI3
aa(lp625
I624
aI87
aI73
aI6
aI0
aI0
aI0
aI1
aI2
aI5
aa(lp626
I625
aI62
aI419
aI6
aI0
aI0
aI0
aI1
aI2
aI5
aa(lp627
I626
aI87
aI859
aI12
aI0
aI0
aI1
aI1
aI2
aI5
aa(lp628
I627
aI65
aI199
aI14
aI0
aI0
aI0
aI1
aI11
aI5
aa(lp629
I628
aI65
aI601
aI18
aI3
aI20
aI2
aI2
aI9
aI8
aa(lp630
I629
aI67
aI846
aI1
aI3
aI16
aI2
aI2
aI15
aI30
aa(lp631
I630
aI86
aI894
aI6
aI0
aI0
aI1
aI1
aI2
aI5
aa(lp632
I631
aI9
aI884
aI12
aI3
aI12
aI0
aI1
aI11
aI5
aa(lp633
I632
aI96
aI964
aI13
aI5
aI11
aI1
aI2
aI14
aI20
aa(lp634
I633
aI87
aI401
aI16
aI1
aI11
aI1
aI2
aI9
aI3
aa(lp635
I634
aI67
aI643
aI1
aI2
aI12
aI1
aI1
aI2
aI5
aa(lp636
I635
aI66
aI1018
aI11
aI3
aI11
aI1
aI2
aI15
aI30
aa(lp637
I636
aI38
aI31
aI11
aI5
aI14
aI1
aI2
aI16
aI4
aa(lp638
I637
aI66
aI259
aI19
aI5
aI12
aI0
aI1
aI2
aI5
aa(lp639
I638
aI30
aI862
aI4
aI5
aI19
aI1
aI2
aI15
aI30
aa(lp640
I639
aI38
aI321
aI18
aI3
aI15
aI2
aI2
aI15
aI30
aa(lp641
I640
aI65
aI113
aI6
aI5
aI13
aI1
aI2
aI16
aI18
aa(lp642
I641
aI107
aI28
aI14
aI0
aI0
aI0
aI1
aI11
aI5
aa(lp643
I642
aI9
aI1093
aI15
aI4
aI13
aI1
aI2
aI16
aI18
aa(lp644
I643
aI88
aI61
aI14
aI5
aI12
aI0
aI1
aI11
aI5
aa(lp645
I644
aI81
aI36
aI16
aI3
aI11
aI1
aI2
aI16
aI18
aa(lp646
I645
aI81
aI552
aI13
aI1
aI12
aI0
aI1
aI11
aI5
aa(lp647
I646
aI87
aI175
aI12
aI5
aI11
aI1
aI2
aI14
aI20
aa(lp648
I647
aI60
aI518
aI8
aI0
aI0
aI0
aI1
aI2
aI5
aa(lp649
I648
aI87
aI680
aI19
aI3
aI14
aI1
aI2
aI14
aI26
aa(lp650
I649
aI9
aI110
aI12
aI5
aI12
aI0
aI1
aI11
aI5
aa(lp651
I650
aI81
aI911
aI9
aI3
aI12
aI0
aI1
aI2
aI5
aa(lp652
I651
aI9
aI280
aI12
aI4
aI15
aI1
aI2
aI9
aI3
aa(lp653
I652
aI9
aI850
aI8
aI5
aI12
aI0
aI1
aI2
aI5
aa(lp654
I653
aI88
aI722
aI14
aI5
aI12
aI0
aI1
aI11
aI5
aa(lp655
I654
aI19
aI829
aI13
aI4
aI11
aI1
aI2
aI14
aI20
aa(lp656
I655
aI90
aI304
aI15
aI5
aI12
aI1
aI1
aI11
aI5
aa(lp657
I656
aI9
aI897
aI11
aI5
aI16
aI1
aI2
aI15
aI25
aa(lp658
I657
aI95
aI1152
aI1
aI3
aI13
aI2
aI2
aI9
aI8
aa(lp659
I658
aI67
aI1032
aI16
aI3
aI13
aI1
aI2
aI16
aI18
aa(lp660
I659
aI30
aI195
aI16
aI4
aI13
aI2
aI2
aI9
aI3
aa(lp661
I660
aI67
aI1113
aI5
aI5
aI13
aI2
aI2
aI14
aI20
aa(lp662
I661
aI65
aI479
aI9
aI3
aI13
aI2
aI2
aI10
aI27
aa(lp663
I662
aI9
aI815
aI14
aI3
aI14
aI1
aI2
aI16
aI4
aa(lp664
I663
aI67
aI709
aI15
aI3
aI13
aI2
aI2
aI15
aI25
aa(lp665
I664
aI56
aI397
aI4
aI3
aI18
aI2
aI2
aI9
aI8
aa(lp666
I665
aI9
aI1093
aI10
aI1
aI14
aI0
aI2
aI4
aI37
aa(lp667
I666
aI3
aI816
aI4
aI4
aI13
aI0
aI2
aI9
aI8
aa(lp668
I667
aI9
aI287
aI0
aI1
aI15
aI1
aI2
aI9
aI3
aa(lp669
I668
aI9
aI283
aI7
aI1
aI1
aI2
aI2
aI9
aI8
aa(lp670
I669
aI90
aI1143
aI16
aI4
aI14
aI1
aI2
aI16
aI41
aa(lp671
I670
aI82
aI306
aI3
aI3
aI19
aI2
aI2
aI9
aI8
aa(lp672
I671
aI3
aI446
aI8
aI5
aI12
aI0
aI1
aI2
aI5
aa(lp673
I672
aI9
aI523
aI7
aI3
aI14
aI1
aI2
aI6
aI0
aa(lp674
I673
aI77
aI565
aI6
aI0
aI0
aI0
aI1
aI2
aI5
aa(lp675
I674
aI30
aI165
aI13
aI2
aI13
aI1
aI2
aI9
aI3
aa(lp676
I675
aI39
aI164
aI15
aI3
aI18
aI2
aI2
aI9
aI8
aa(lp677
I676
aI67
aI414
aI2
aI3
aI17
aI2
aI2
aI9
aI8
aa(lp678
I677
aI30
aI1109
aI19
aI4
aI14
aI0
aI2
aI6
aI9
aa(lp679
I678
aI81
aI47
aI13
aI5
aI12
aI0
aI1
aI11
aI5
aa(lp680
I679
aI88
aI1006
aI6
aI0
aI0
aI0
aI1
aI2
aI5
aa(lp681
I680
aI33
aI21
aI13
aI4
aI12
aI1
aI2
aI4
aI28
aa(lp682
I681
aI121
aI765
aI4
aI4
aI15
aI2
aI2
aI9
aI8
aa(lp683
I682
aI38
aI121
aI8
aI4
aI12
aI0
aI1
aI2
aI5
aa(lp684
I683
aI81
aI552
aI10
aI1
aI14
aI1
aI2
aI4
aI12
aa(lp685
I684
aI79
aI598
aI16
aI5
aI16
aI2
aI2
aI9
aI8
aa(lp686
I685
aI65
aI403
aI3
aI0
aI0
aI1
aI1
aI2
aI5
aa(lp687
I686
aI67
aI519
aI18
aI3
aI15
aI2
aI2
aI15
aI30
aa(lp688
I687
aI70
aI316
aI6
aI5
aI12
aI0
aI1
aI2
aI5
aa(lp689
I688
aI81
aI792
aI13
aI0
aI0
aI0
aI1
aI11
aI5
aa(lp690
I689
aI67
aI417
aI9
aI4
aI16
aI2
aI2
aI9
aI3
aa(lp691
I690
aI67
aI293
aI9
aI0
aI0
aI0
aI1
aI2
aI5
aa(lp692
I691
aI65
aI717
aI9
aI0
aI0
aI0
aI1
aI2
aI5
aa(lp693
I692
aI8
aI103
aI2
aI3
aI1
aI2
aI2
aI9
aI8
aa(lp694
I693
aI66
aI557
aI14
aI4
aI12
aI1
aI2
aI4
aI38
aa(lp695
I694
aI67
aI924
aI0
aI1
aI11
aI1
aI2
aI9
aI3
aa(lp696
I695
aI9
aI264
aI10
aI3
aI19
aI2
aI2
aI4
aI21
aa(lp697
I696
aI67
aI839
aI17
aI0
aI0
aI1
aI1
aI11
aI5
aa(lp698
I697
aI87
aI52
aI13
aI5
aI11
aI1
aI2
aI9
aI8
aa(lp699
I698
aI67
aI266
aI19
aI0
aI0
aI1
aI1
aI2
aI5
aa(lp700
I699
aI67
aI906
aI14
aI1
aI11
aI1
aI2
aI9
aI3
aa(lp701
I700
aI87
aI739
aI11
aI5
aI11
aI1
aI2
aI6
aI0
aa(lp702
I701
aI87
aI469
aI1
aI1
aI11
aI1
aI2
aI9
aI3
aa(lp703
I702
aI9
aI250
aI0
aI3
aI15
aI0
aI2
aI9
aI8
aa(lp704
I703
aI64
aI495
aI12
aI3
aI13
aI1
aI2
aI9
aI3
aa(lp705
I704
aI3
aI641
aI17
aI5
aI20
aI2
aI2
aI15
aI30
aa(lp706
I705
aI9
aI740
aI10
aI3
aI13
aI2
aI2
aI3
aI16
aa(lp707
I706
aI9
aI927
aI5
aI4
aI12
aI1
aI2
aI9
aI3
aa(lp708
I707
aI30
aI991
aI0
aI2
aI11
aI1
aI2
aI10
aI32
aa(lp709
I708
aI30
aI281
aI1
aI4
aI17
aI2
aI2
aI9
aI8
aa(lp710
I709
aI67
aI921
aI6
aI4
aI13
aI0
aI2
aI16
aI4
aa(lp711
I710
aI30
aI991
aI0
aI3
aI20
aI2
aI2
aI9
aI8
aa(lp712
I711
aI32
aI926
aI4
aI3
aI11
aI1
aI2
aI9
aI3
aa(lp713
I712
aI33
aI716
aI10
aI5
aI12
aI0
aI1
aI2
aI5
aa(lp714
I713
aI67
aI420
aI1
aI4
aI16
aI2
aI2
aI9
aI3
aa(lp715
I714
aI55
aI1044
aI10
aI0
aI0
aI0
aI1
aI2
aI5
aa(lp716
I715
aI87
aI149
aI2
aI3
aI7
aI2
aI2
aI9
aI8
aa(lp717
I716
aI87
aI680
aI0
aI4
aI14
aI2
aI2
aI9
aI3
aa(lp718
I717
aI87
aI434
aI15
aI3
aI13
aI1
aI2
aI15
aI25
aa(lp719
I718
aI55
aI374
aI12
aI4
aI11
aI1
aI2
aI14
aI20
aa(lp720
I719
aI66
aI298
aI9
aI5
aI12
aI0
aI1
aI2
aI5
aa(lp721
I720
aI81
aI335
aI13
aI3
aI12
aI0
aI1
aI11
aI5
aa(lp722
I721
aI96
aI179
aI11
aI4
aI11
aI1
aI2
aI14
aI26
aa(lp723
I722
aI9
aI378
aI19
aI3
aI13
aI1
aI2
aI16
aI4
aa(lp724
I723
aI67
aI554
aI19
aI3
aI16
aI1
aI2
aI15
aI30
aa(lp725
I724
aI93
aI1074
aI0
aI3
aI13
aI2
aI2
aI9
aI8
aa(lp726
I725
aI118
aI3
aI0
aI5
aI14
aI2
aI2
aI15
aI30
aa(lp727
I726
aI109
aI992
aI18
aI5
aI18
aI2
aI2
aI6
aI0
aa(lp728
I727
aI30
aI531
aI10
aI2
aI18
aI2
aI2
aI7
aI42
aa(lp729
I728
aI30
aI233
aI6
aI0
aI0
aI1
aI1
aI2
aI5
aa(lp730
I729
aI73
aI806
aI2
aI3
aI4
aI2
aI2
aI9
aI8
aa(lp731
I730
aI57
aI1031
aI9
aI1
aI12
aI1
aI1
aI2
aI5
aa(lp732
I731
aI81
aI710
aI11
aI2
aI12
aI0
aI1
aI11
aI5
aa(lp733
I732
aI88
aI1129
aI17
aI3
aI14
aI0
aI2
aI15
aI25
aa(lp734
I733
aI121
aI425
aI11
aI3
aI11
aI1
aI2
aI14
aI26
aa(lp735
I734
aI65
aI968
aI4
aI3
aI18
aI2
aI2
aI9
aI8
aa(lp736
I735
aI41
aI1137
aI14
aI3
aI11
aI1
aI2
aI16
aI41
aa(lp737
I736
aI67
aI218
aI6
aI5
aI12
aI0
aI1
aI2
aI5
aa(lp738
I737
aI81
aI132
aI18
aI4
aI6
aI2
aI2
aI9
aI8
aa(lp739
I738
aI88
aI80
aI3
aI3
aI16
aI1
aI2
aI6
aI0
aa(lp740
I739
aI41
aI1137
aI8
aI5
aI12
aI0
aI1
aI2
aI5
aa(lp741
I740
aI9
aI871
aI6
aI3
aI16
aI2
aI2
aI9
aI8
aa(lp742
I741
aI87
aI1126
aI8
aI5
aI12
aI0
aI1
aI2
aI5
aa(lp743
I742
aI67
aI417
aI15
aI3
aI16
aI1
aI2
aI6
aI0
aa(lp744
I743
aI65
aI430
aI15
aI5
aI12
aI1
aI1
aI11
aI5
aa(lp745
I744
aI40
aI373
aI18
aI3
aI15
aI2
aI2
aI9
aI8
aa(lp746
I745
aI67
aI679
aI14
aI1
aI11
aI1
aI2
aI16
aI4
aa(lp747
I746
aI81
aI235
aI18
aI3
aI15
aI2
aI2
aI9
aI8
aa(lp748
I747
aI82
aI790
aI9
aI0
aI0
aI0
aI1
aI2
aI5
aa(lp749
I748
aI94
aI511
aI19
aI5
aI15
aI1
aI2
aI15
aI25
aa(lp750
I749
aI55
aI1021
aI14
aI0
aI0
aI1
aI1
aI11
aI5
aa(lp751
I750
aI59
aI891
aI2
aI3
aI19
aI2
aI2
aI9
aI8
aa(lp752
I751
aI87
aI107
aI13
aI5
aI11
aI1
aI2
aI15
aI25
aa(lp753
I752
aI30
aI991
aI4
aI5
aI14
aI1
aI2
aI15
aI25
aa(lp754
I753
aI85
aI767
aI0
aI3
aI16
aI2
aI2
aI9
aI8
aa(lp755
I754
aI9
aI827
aI13
aI5
aI12
aI1
aI2
aI14
aI20
aa(lp756
I755
aI42
aI140
aI9
aI0
aI0
aI0
aI1
aI2
aI5
aa(lp757
I756
aI9
aI760
aI18
aI3
aI13
aI2
aI2
aI6
aI0
aa(lp758
I757
aI62
aI997
aI9
aI0
aI0
aI0
aI1
aI2
aI5
aa(lp759
I758
aI9
aI749
aI15
aI0
aI0
aI0
aI1
aI11
aI5
aa(lp760
I759
aI67
aI882
aI14
aI5
aI14
aI1
aI2
aI15
aI25
aa(lp761
I760
aI66
aI259
aI11
aI3
aI16
aI1
aI2
aI15
aI30
aa(lp762
I761
aI30
aI194
aI5
aI2
aI11
aI1
aI2
aI9
aI3
aa(lp763
I762
aI51
aI333
aI8
aI0
aI0
aI1
aI1
aI2
aI5
aa(lp764
I763
aI27
aI167
aI12
aI3
aI13
aI1
aI2
aI16
aI19
aa(lp765
I764
aI27
aI167
aI18
aI3
aI11
aI0
aI2
aI6
aI9
aa(lp766
I765
aI67
aI255
aI16
aI3
aI13
aI2
aI2
aI15
aI30
aa(lp767
I766
aI62
aI472
aI8
aI0
aI0
aI1
aI1
aI2
aI5
aa(lp768
I767
aI36
aI467
aI2
aI3
aI15
aI2
aI2
aI9
aI8
aa(lp769
I768
aI118
aI53
aI14
aI5
aI11
aI1
aI2
aI14
aI35
aa(lp770
I769
aI9
aI834
aI0
aI4
aI13
aI2
aI2
aI9
aI8
aa(lp771
I770
aI9
aI349
aI16
aI3
aI14
aI0
aI2
aI15
aI30
aa(lp772
I771
aI41
aI336
aI17
aI3
aI16
aI2
aI2
aI9
aI8
aa(lp773
I772
aI109
aI625
aI4
aI5
aI15
aI2
aI2
aI6
aI9
aa(lp774
I773
aI87
aI919
aI2
aI3
aI8
aI2
aI2
aI9
aI8
aa(lp775
I774
aI97
aI313
aI8
aI0
aI0
aI0
aI1
aI2
aI5
aa(lp776
I775
aI65
aI713
aI1
aI3
aI8
aI2
aI2
aI9
aI8
aa(lp777
I776
aI62
aI1148
aI9
aI0
aI0
aI0
aI1
aI2
aI5
aa(lp778
I777
aI9
aI1094
aI17
aI2
aI14
aI1
aI2
aI9
aI3
aa(lp779
I778
aI67
aI937
aI0
aI4
aI11
aI1
aI2
aI16
aI18
aa(lp780
I779
aI59
aI252
aI11
aI3
aI14
aI1
aI2
aI15
aI25
aa(lp781
I780
aI88
aI505
aI14
aI5
aI12
aI0
aI1
aI11
aI5
aa(lp782
I781
aI73
aI1000
aI2
aI3
aI2
aI2
aI2
aI9
aI8
aa(lp783
I782
aI99
aI97
aI1
aI3
aI13
aI2
aI2
aI9
aI8
aa(lp784
I783
aI85
aI934
aI16
aI3
aI11
aI1
aI2
aI9
aI3
aa(lp785
I784
aI54
aI308
aI4
aI4
aI18
aI2
aI2
aI9
aI8
aa(lp786
I785
aI38
aI121
aI14
aI5
aI12
aI0
aI1
aI11
aI5
aa(lp787
I786
aI2
aI463
aI4
aI5
aI16
aI2
aI2
aI9
aI8
aa(lp788
I787
aI62
aI243
aI8
aI0
aI0
aI0
aI1
aI2
aI5
aa(lp789
I788
aI65
aI614
aI11
aI3
aI15
aI0
aI2
aI9
aI3
aa(lp790
I789
aI67
aI1032
aI0
aI3
aI18
aI0
aI2
aI9
aI8
aa(lp791
I790
aI9
aI287
aI17
aI3
aI11
aI0
aI2
aI16
aI4
aa(lp792
I791
aI3
aI208
aI3
aI3
aI20
aI2
aI2
aI9
aI8
aa(lp793
I792
aI67
aI168
aI12
aI5
aI12
aI0
aI1
aI11
aI5
aa(lp794
I793
aI35
aI1112
aI10
aI0
aI0
aI1
aI1
aI2
aI5
aa(lp795
I794
aI66
aI737
aI13
aI2
aI12
aI1
aI2
aI9
aI3
aa(lp796
I795
aI67
aI1127
aI4
aI4
aI11
aI1
aI2
aI4
aI22
aa(lp797
I796
aI81
aI36
aI18
aI3
aI14
aI1
aI2
aI15
aI25
aa(lp798
I797
aI71
aI454
aI5
aI3
aI17
aI2
aI2
aI9
aI8
aa(lp799
I798
aI65
aI402
aI1
aI4
aI14
aI1
aI2
aI9
aI3
aa(lp800
I799
aI82
aI790
aI10
aI5
aI18
aI2
aI2
aI10
aI40
aa(lp801
I800
aI67
aI545
aI17
aI5
aI15
aI1
aI2
aI15
aI25
aa(lp802
I801
aI66
aI278
aI12
aI3
aI11
aI1
aI2
aI15
aI25
aa(lp803
I802
aI33
aI620
aI8
aI2
aI16
aI2
aI2
aI3
aI16
aa(lp804
I803
aI66
aI117
aI11
aI4
aI12
aI1
aI2
aI16
aI18
aa(lp805
I804
aI65
aI564
aI6
aI5
aI14
aI1
aI2
aI16
aI18
aa(lp806
I805
aI65
aI331
aI14
aI2
aI12
aI1
aI1
aI11
aI5
aa(lp807
I806
aI67
aI453
aI9
aI0
aI0
aI0
aI1
aI2
aI5
aa(lp808
I807
aI90
aI648
aI18
aI4
aI13
aI2
aI2
aI9
aI8
aa(lp809
I808
aI66
aI524
aI2
aI1
aI9
aI2
aI2
aI9
aI8
aa(lp810
I809
aI65
aI977
aI4
aI0
aI0
aI1
aI1
aI2
aI5
aa(lp811
I810
aI65
aI42
aI18
aI4
aI11
aI1
aI2
aI9
aI3
aa(lp812
I811
aI67
aI1032
aI10
aI4
aI11
aI1
aI2
aI4
aI22
aa(lp813
I812
aI9
aI378
aI11
aI3
aI13
aI1
aI2
aI9
aI3
aa(lp814
I813
aI65
aI580
aI18
aI5
aI16
aI2
aI2
aI15
aI30
aa(lp815
I814
aI9
aI56
aI14
aI3
aI12
aI0
aI1
aI11
aI5
aa(lp816
I815
aI5
aI674
aI6
aI4
aI12
aI1
aI1
aI2
aI5
aa(lp817
I816
aI55
aI370
aI9
aI0
aI0
aI0
aI1
aI2
aI5
aa(lp818
I817
aI67
aI157
aI17
aI3
aI13
aI1
aI2
aI6
aI0
aa(lp819
I818
aI67
aI937
aI1
aI3
aI11
aI1
aI2
aI7
aI42
aa(lp820
I819
aI65
aI652
aI8
aI3
aI14
aI1
aI2
aI7
aI33
aa(lp821
I820
aI66
aI979
aI6
aI0
aI0
aI0
aI1
aI2
aI5
aa(lp822
I821
aI67
aI415
aI4
aI0
aI0
aI1
aI1
aI2
aI5
aa(lp823
I822
aI9
aI688
aI10
aI3
aI11
aI1
aI2
aI3
aI16
aa(lp824
I823
aI66
aI198
aI3
aI1
aI12
aI0
aI1
aI2
aI5
aa(lp825
I824
aI67
aI1065
aI9
aI3
aI11
aI1
aI2
aI9
aI3
aa(lp826
I825
aI66
aI1115
aI4
aI0
aI0
aI1
aI1
aI2
aI5
aa(lp827
I826
aI65
aI1037
aI19
aI3
aI14
aI1
aI2
aI9
aI8
aa(lp828
I827
aI65
aI506
aI14
aI0
aI0
aI1
aI1
aI11
aI5
aa(lp829
I828
aI87
aI680
aI16
aI4
aI13
aI2
aI2
aI9
aI3
aa(lp830
I829
aI9
aI521
aI16
aI4
aI19
aI1
aI2
aI14
aI20
aa(lp831
I830
aI56
aI369
aI2
aI3
aI18
aI2
aI2
aI9
aI8
aa(lp832
I831
aI87
aI399
aI16
aI5
aI18
aI1
aI2
aI15
aI25
aa(lp833
I832
aI66
aI70
aI14
aI0
aI0
aI1
aI1
aI11
aI5
aa(lp834
I833
aI88
aI61
aI7
aI4
aI11
aI2
aI2
aI14
aI35
aa(lp835
I834
aI67
aI898
aI9
aI3
aI13
aI1
aI2
aI3
aI13
aa(lp836
I835
aI87
aI1126
aI12
aI3
aI12
aI1
aI2
aI6
aI14
aa(lp837
I836
aI45
aI1041
aI9
aI0
aI0
aI0
aI1
aI2
aI5
aa(lp838
I837
aI3
aI732
aI18
aI1
aI11
aI1
aI2
aI4
aI23
aa(lp839
I838
aI87
aI399
aI14
aI0
aI0
aI1
aI1
aI2
aI5
aa(lp840
I839
aI63
aI705
aI9
aI5
aI12
aI0
aI1
aI2
aI5
aa(lp841
I840
aI66
aI812
aI3
aI4
aI18
aI2
aI2
aI9
aI8
aa(lp842
I841
aI67
aI679
aI3
aI5
aI14
aI2
aI2
aI14
aI20
aa(lp843
I842
aI67
aI542
aI4
aI4
aI11
aI0
aI2
aI9
aI8
aa(lp844
I843
aI57
aI90
aI8
aI1
aI12
aI0
aI1
aI2
aI5
aa(lp845
I844
aI66
aI653
aI8
aI4
aI18
aI0
aI2
aI3
aI16
aa(lp846
I845
aI66
aI198
aI19
aI4
aI12
aI0
aI1
aI2
aI5
aa(lp847
I846
aI110
aI691
aI6
aI5
aI12
aI0
aI1
aI2
aI5
aa(lp848
I847
aI9
aI523
aI0
aI3
aI13
aI1
aI2
aI15
aI25
aa(lp849
I848
aI30
aI862
aI18
aI3
aI8
aI2
aI2
aI9
aI8
aa(lp850
I849
aI9
aI250
aI15
aI4
aI14
aI1
aI2
aI16
aI18
aa(lp851
I850
aI9
aI40
aI4
aI1
aI10
aI2
aI2
aI9
aI8
aa(lp852
I851
aI107
aI119
aI4
aI0
aI0
aI1
aI1
aI2
aI5
aa(lp853
I852
aI66
aI605
aI10
aI4
aI8
aI0
aI2
aI3
aI16
aa(lp854
I853
aI19
aI957
aI2
aI3
aI20
aI2
aI2
aI9
aI8
aa(lp855
I854
aI9
aI621
aI8
aI3
aI11
aI0
aI1
aI2
aI5
aa(lp856
I855
aI65
aI199
aI8
aI3
aI11
aI0
aI2
aI3
aI16
aa(lp857
I856
aI81
aI787
aI12
aI0
aI0
aI0
aI1
aI11
aI5
aa(lp858
I857
aI88
aI693
aI10
aI4
aI11
aI1
aI2
aI10
aI27
aa(lp859
I858
aI67
aI639
aI18
aI4
aI11
aI1
aI2
aI16
aI18
aa(lp860
I859
aI67
aI1033
aI18
aI4
aI14
aI1
aI2
aI14
aI20
aa(lp861
I860
aI82
aI922
aI6
aI0
aI0
aI1
aI1
aI2
aI5
aa(lp862
I861
aI9
aI520
aI5
aI3
aI13
aI2
aI2
aI6
aI0
aa(lp863
I862
aI67
aI907
aI16
aI3
aI20
aI2
aI2
aI15
aI30
aa(lp864
I863
aI9
aI850
aI16
aI3
aI12
aI1
aI2
aI14
aI20
aa(lp865
I864
aI87
aI526
aI18
aI4
aI12
aI0
aI1
aI2
aI5
aa(lp866
I865
aI38
aI385
aI9
aI0
aI0
aI0
aI1
aI2
aI5
aa(lp867
I866
aI87
aI450
aI13
aI5
aI12
aI0
aI1
aI11
aI5
aa(lp868
I867
aI65
aI86
aI17
aI4
aI13
aI2
aI2
aI9
aI3
aa(lp869
I868
aI82
aI933
aI18
aI3
aI13
aI1
aI2
aI16
aI41
aa(lp870
I869
aI49
aI899
aI10
aI0
aI0
aI1
aI1
aI2
aI5
aa(lp871
I870
aI82
aI312
aI7
aI3
aI17
aI1
aI2
aI14
aI20
aa(lp872
I871
aI78
aI628
aI1
aI4
aI14
aI2
aI2
aI9
aI3
aa(lp873
I872
aI66
aI606
aI13
aI1
aI14
aI1
aI2
aI9
aI3
aa(lp874
I873
aI67
aI358
aI0
aI5
aI11
aI1
aI2
aI9
aI3
aa(lp875
I874
aI65
aI113
aI17
aI0
aI0
aI0
aI1
aI11
aI5
aa(lp876
I875
aI81
aI57
aI13
aI3
aI12
aI1
aI1
aI11
aI5
aa(lp877
I876
aI121
aI851
aI13
aI3
aI14
aI1
aI2
aI6
aI0
aa(lp878
I877
aI66
aI1145
aI0
aI3
aI6
aI2
aI2
aI9
aI8
aa(lp879
I878
aI66
aI198
aI0
aI2
aI12
aI0
aI1
aI2
aI5
aa(lp880
I879
aI30
aI305
aI3
aI2
aI14
aI1
aI2
aI16
aI4
aa(lp881
I880
aI67
aI417
aI9
aI5
aI12
aI0
aI1
aI2
aI5
aa(lp882
I881
aI67
aI185
aI18
aI3
aI16
aI2
aI2
aI15
aI30
aa(lp883
I882
aI48
aI1118
aI7
aI3
aI14
aI1
aI2
aI14
aI35
aa(lp884
I883
aI67
aI497
aI14
aI3
aI11
aI1
aI2
aI6
aI0
aa(lp885
I884
aI9
aI181
aI17
aI2
aI14
aI1
aI2
aI9
aI3
aa(lp886
I885
aI66
aI65
aI10
aI5
aI19
aI2
aI2
aI10
aI40
aa(lp887
I886
aI9
aI523
aI16
aI3
aI13
aI1
aI2
aI9
aI3
aa(lp888
I887
aI66
aI435
aI10
aI1
aI18
aI2
aI2
aI3
aI16
aa(lp889
I888
aI3
aI637
aI18
aI1
aI11
aI1
aI2
aI16
aI4
aa(lp890
I889
aI117
aI428
aI9
aI3
aI12
aI0
aI1
aI2
aI5
aa(lp891
I890
aI69
aI994
aI0
aI3
aI16
aI2
aI2
aI9
aI8
aa(lp892
I891
aI9
aI264
aI18
aI3
aI10
aI2
aI2
aI9
aI8
aa(lp893
I892
aI89
aI183
aI16
aI1
aI11
aI1
aI2
aI9
aI3
aa(lp894
I893
aI13
aI404
aI7
aI4
aI15
aI2
aI2
aI9
aI8
aa(lp895
I894
aI93
aI546
aI8
aI0
aI0
aI0
aI1
aI2
aI5
aa(lp896
I895
aI67
aI924
aI7
aI3
aI11
aI1
aI2
aI9
aI3
aa(lp897
I896
aI88
aI585
aI14
aI3
aI12
aI0
aI1
aI11
aI5
aa(lp898
I897
aI9
aI941
aI5
aI3
aI10
aI2
aI2
aI9
aI8
aa(lp899
I898
aI30
aI79
aI17
aI4
aI14
aI2
aI2
aI9
aI3
aa(lp900
I899
aI65
aI294
aI6
aI0
aI0
aI1
aI1
aI2
aI5
aa(lp901
I900
aI121
aI1075
aI6
aI0
aI0
aI0
aI1
aI2
aI5
aa(lp902
I901
aI65
aI512
aI15
aI0
aI0
aI1
aI1
aI2
aI5
aa(lp903
I902
aI3
aI816
aI16
aI3
aI16
aI2
aI2
aI15
aI30
aa(lp904
I903
aI65
aI836
aI0
aI5
aI11
aI2
aI2
aI6
aI0
aa(lp905
I904
aI87
aI633
aI10
aI3
aI13
aI1
aI2
aI3
aI13
aa(lp906
I905
aI67
aI791
aI4
aI0
aI0
aI1
aI1
aI2
aI5
aa(lp907
I906
aI55
aI551
aI18
aI0
aI0
aI1
aI1
aI2
aI5
aa(lp908
I907
aI43
aI645
aI14
aI5
aI16
aI0
aI2
aI15
aI30
aa(lp909
I908
aI87
aI623
aI19
aI5
aI12
aI0
aI1
aI11
aI5
aa(lp910
I909
aI87
aI434
aI2
aI3
aI20
aI2
aI2
aI9
aI8
aa(lp911
I910
aI67
aI1032
aI17
aI5
aI18
aI1
aI2
aI15
aI25
aa(lp912
I911
aI96
aI1144
aI3
aI4
aI18
aI2
aI2
aI9
aI8
aa(lp913
I912
aI80
aI942
aI14
aI4
aI14
aI1
aI2
aI16
aI18
aa(lp914
I913
aI81
aI552
aI19
aI3
aI13
aI1
aI2
aI15
aI25
aa(lp915
I914
aI9
aI954
aI6
aI3
aI11
aI1
aI2
aI9
aI3
aa(lp916
I915
aI89
aI513
aI9
aI4
aI12
aI0
aI1
aI2
aI5
aa(lp917
I916
aI66
aI653
aI17
aI3
aI1
aI2
aI2
aI9
aI8
aa(lp918
I917
aI67
aI39
aI12
aI5
aI12
aI0
aI1
aI11
aI5
aa(lp919
I918
aI66
aI605
aI19
aI4
aI14
aI1
aI2
aI16
aI4
aa(lp920
I919
aI67
aI554
aI8
aI2
aI11
aI1
aI2
aI3
aI13
aa(lp921
I920
aI67
aI642
aI19
aI5
aI11
aI1
aI2
aI15
aI30
aa(lp922
I921
aI45
aI307
aI13
aI1
aI11
aI1
aI2
aI9
aI3
aa(lp923
I922
aI82
aI196
aI7
aI3
aI13
aI1
aI2
aI16
aI18
aa(lp924
I923
aI33
aI1103
aI18
aI3
aI11
aI1
aI2
aI15
aI30
aa(lp925
I924
aI66
aI117
aI13
aI2
aI12
aI1
aI2
aI9
aI3
aa(lp926
I925
aI65
aI996
aI15
aI3
aI11
aI1
aI2
aI9
aI3
aa(lp927
I926
aI43
aI677
aI5
aI3
aI17
aI2
aI2
aI9
aI8
aa(lp928
I927
aI66
aI905
aI1
aI3
aI14
aI2
aI2
aI4
aI23
aa(lp929
I928
aI30
aI49
aI16
aI1
aI13
aI2
aI2
aI9
aI3
aa(lp930
I929
aI106
aI108
aI5
aI3
aI15
aI2
aI2
aI9
aI8
aa(lp931
I930
aI66
aI903
aI13
aI4
aI12
aI1
aI2
aI10
aI32
aa(lp932
I931
aI65
aI375
aI19
aI3
aI14
aI1
aI2
aI14
aI20
aa(lp933
I932
aI9
aI286
aI18
aI4
aI13
aI0
aI2
aI9
aI3
aa(lp934
I933
aI9
aI264
aI14
aI3
aI14
aI0
aI2
aI6
aI0
aa(lp935
I934
aI9
aI286
aI9
aI3
aI11
aI0
aI1
aI2
aI5
aa(lp936
I935
aI65
aI512
aI19
aI4
aI13
aI2
aI2
aI9
aI3
aa(lp937
I936
aI67
aI1023
aI10
aI4
aI11
aI2
aI2
aI7
aI42
aa(lp938
I937
aI3
aI816
aI3
aI3
aI15
aI1
aI2
aI6
aI14
aa(lp939
I938
aI117
aI217
aI3
aI0
aI0
aI1
aI1
aI2
aI5
aa(lp940
I939
aI9
aI815
aI12
aI3
aI11
aI1
aI2
aI6
aI14
aa(lp941
I940
aI67
aI642
aI5
aI0
aI0
aI1
aI1
aI2
aI5
aa(lp942
I941
aI51
aI857
aI6
aI0
aI0
aI1
aI1
aI2
aI5
aa(lp943
I942
aI94
aI193
aI16
aI3
aI11
aI1
aI2
aI6
aI9
aa(lp944
I943
aI82
aI902
aI17
aI4
aI13
aI1
aI2
aI16
aI18
aa(lp945
I944
aI55
aI337
aI18
aI3
aI11
aI2
aI2
aI6
aI14
aa(lp946
I945
aI19
aI960
aI1
aI2
aI14
aI1
aI2
aI9
aI3
aa(lp947
I946
aI87
aI433
aI6
aI0
aI0
aI0
aI1
aI2
aI5
aa(lp948
I947
aI81
aI552
aI12
aI2
aI12
aI0
aI1
aI11
aI5
aa(lp949
I948
aI65
aI1108
aI14
aI3
aI11
aI1
aI2
aI16
aI18
aa(lp950
I949
aI43
aI206
aI7
aI3
aI14
aI1
aI2
aI16
aI41
aa(lp951
I950
aI9
aI1091
aI1
aI0
aI0
aI1
aI1
aI2
aI5
aa(lp952
I951
aI67
aI554
aI15
aI4
aI14
aI1
aI2
aI16
aI4
aa(lp953
I952
aI64
aI495
aI0
aI3
aI11
aI1
aI2
aI6
aI14
aa(lp954
I953
aI67
aI507
aI4
aI5
aI13
aI1
aI2
aI16
aI4
aa(lp955
I954
aI27
aI219
aI13
aI5
aI11
aI1
aI2
aI16
aI18
aa(lp956
I955
aI81
aI624
aI9
aI0
aI0
aI1
aI1
aI2
aI5
aa(lp957
I956
aI59
aI245
aI6
aI3
aI11
aI1
aI2
aI14
aI26
aa(lp958
I957
aI3
aI441
aI7
aI0
aI0
aI0
aI1
aI2
aI5
aa(lp959
I958
aI30
aI562
aI12
aI2
aI14
aI1
aI2
aI10
aI27
aa(lp960
I959
aI9
aI521
aI14
aI4
aI16
aI1
aI2
aI14
aI35
aa(lp961
I960
aI87
aI284
aI11
aI3
aI11
aI1
aI2
aI16
aI4
aa(lp962
I961
aI65
aI610
aI1
aI3
aI5
aI2
aI2
aI9
aI8
aa(lp963
I962
aI89
aI395
aI6
aI3
aI13
aI1
aI2
aI14
aI35
aa(lp964
I963
aI67
aI1127
aI7
aI1
aI11
aI1
aI2
aI9
aI3
aa(lp965
I964
aI87
aI469
aI18
aI4
aI15
aI1
aI2
aI16
aI18
aa(lp966
I965
aI81
aI173
aI4
aI4
aI14
aI2
aI2
aI14
aI20
aa(lp967
I966
aI82
aI933
aI12
aI3
aI14
aI1
aI2
aI16
aI4
aa(lp968
I967
aI87
aI680
aI14
aI4
aI14
aI1
aI2
aI16
aI4
aa(lp969
I968
aI9
aI749
aI14
aI5
aI12
aI0
aI1
aI11
aI5
aa(lp970
I969
aI88
aI1129
aI10
aI1
aI13
aI2
aI2
aI4
aI37
aa(lp971
I970
aI65
aI1130
aI17
aI0
aI0
aI0
aI1
aI11
aI5
aa(lp972
I971
aI66
aI737
aI5
aI5
aI12
aI0
aI1
aI2
aI5
aa(lp973
I972
aI118
aI1158
aI5
aI3
aI5
aI2
aI2
aI9
aI8
aa(lp974
I973
aI55
aI599
aI7
aI0
aI0
aI1
aI1
aI2
aI5
aa(lp975
I974
aI66
aI608
aI11
aI3
aI12
aI1
aI2
aI16
aI19
aa(lp976
I975
aI81
aI36
aI0
aI4
aI15
aI2
aI2
aI9
aI8
aa(lp977
I976
aI81
aI944
aI15
aI5
aI12
aI1
aI1
aI11
aI5
aa(lp978
I977
aI81
aI746
aI17
aI1
aI13
aI1
aI2
aI9
aI3
aa(lp979
I978
aI88
aI822
aI12
aI5
aI12
aI0
aI1
aI11
aI5
aa(lp980
I979
aI82
aI431
aI6
aI2
aI12
aI0
aI1
aI2
aI5
aa(lp981
I980
aI94
aI646
aI18
aI3
aI16
aI2
aI2
aI9
aI8
aa(lp982
I981
aI66
aI524
aI0
aI4
aI14
aI2
aI2
aI4
aI23
aa(lp983
I982
aI67
aI420
aI6
aI4
aI14
aI0
aI2
aI9
aI3
aa(lp984
I983
aI65
aI222
aI14
aI1
aI11
aI1
aI2
aI14
aI20
aa(lp985
I984
aI109
aI728
aI18
aI5
aI20
aI2
aI2
aI15
aI30
aa(lp986
I985
aI65
aI77
aI16
aI0
aI0
aI0
aI1
aI11
aI5
aa(lp987
I986
aI54
aI78
aI17
aI5
aI12
aI1
aI1
aI2
aI5
aa(lp988
I987
aI67
aI1032
aI9
aI3
aI11
aI1
aI2
aI8
aI10
aa(lp989
I988
aI67
aI413
aI8
aI5
aI12
aI0
aI1
aI2
aI5
aa(lp990
I989
aI9
aI1120
aI4
aI3
aI14
aI1
aI2
aI16
aI4
aa(lp991
I990
aI82
aI400
aI1
aI3
aI19
aI2
aI2
aI9
aI8
aa(lp992
I991
aI105
aI33
aI6
aI0
aI0
aI1
aI1
aI11
aI5
aa(lp993
I992
aI66
aI510
aI14
aI4
aI14
aI1
aI2
aI9
aI3
aa(lp994
I993
aI67
aI417
aI18
aI4
aI11
aI1
aI2
aI16
aI18
aa(lp995
I994
aI89
aI938
aI0
aI3
aI11
aI0
aI2
aI15
aI25
aa(lp996
I995
aI88
aI481
aI7
aI0
aI0
aI1
aI1
aI2
aI5
aa(lp997
I996
aI65
aI601
aI18
aI4
aI13
aI1
aI2
aI14
aI20
aa(lp998
I997
aI27
aI219
aI13
aI3
aI14
aI1
aI2
aI16
aI41
aa(lp999
I998
aI57
aI858
aI7
aI1
aI12
aI1
aI1
aI2
aI5
aa(lp1000
I999
aI30
aI991
aI16
aI3
aI19
aI2
aI2
aI9
aI8
aa(lp1001
I1000
aI81
aI552
aI10
aI1
aI16
aI2
aI2
aI4
aI23
aa(lp1002
I1001
aI55
aI838
aI10
aI2
aI11
aI1
aI2
aI4
aI37
aa(lp1003
I1002
aI65
aI113
aI1
aI3
aI11
aI1
aI2
aI15
aI24
aa(lp1004
I1003
aI9
aI264
aI9
aI4
aI12
aI1
aI2
aI4
aI1
aa(lp1005
I1004
aI81
aI590
aI12
aI4
aI11
aI1
aI2
aI14
aI26
aa(lp1006
I1005
aI9
aI485
aI11
aI5
aI12
aI1
aI2
aI16
aI4
aa(lp1007
I1006
aI18
aI875
aI9
aI5
aI12
aI0
aI1
aI2
aI5
aa(lp1008
I1007
aI87
aI644
aI18
aI0
aI0
aI1
aI1
aI2
aI5
aa(lp1009
I1008
aI3
aI637
aI10
aI4
aI14
aI1
aI2
aI10
aI32
aa(lp1010
I1009
aI9
aI850
aI12
aI3
aI14
aI0
aI2
aI15
aI30
aa(lp1011
I1010
aI65
aI517
aI17
aI5
aI11
aI1
aI2
aI16
aI18
aa(lp1012
I1011
aI81
aI36
aI13
aI5
aI12
aI1
aI1
aI11
aI5
aa(lp1013
I1012
aI82
aI933
aI16
aI3
aI11
aI1
aI2
aI9
aI3
aa(lp1014
I1013
aI65
aI388
aI13
aI3
aI12
aI1
aI1
aI11
aI5
aa(lp1015
I1014
aI87
aI715
aI0
aI1
aI11
aI1
aI2
aI9
aI3
aa(lp1016
I1015
aI88
aI442
aI0
aI3
aI12
aI1
aI2
aI14
aI20
aa(lp1017
I1016
aI59
aI786
aI8
aI3
aI12
aI1
aI2
aI14
aI20
aa(lp1018
I1017
aI20
aI1077
aI9
aI0
aI0
aI0
aI1
aI2
aI5
aa(lp1019
I1018
aI30
aI1109
aI9
aI4
aI12
aI0
aI1
aI2
aI5
aa(lp1020
I1019
aI78
aI169
aI18
aI4
aI13
aI2
aI2
aI9
aI3
aa(lp1021
I1020
aI51
aI873
aI12
aI3
aI12
aI0
aI1
aI11
aI5
aa(lp1022
I1021
aI117
aI1064
aI18
aI0
aI0
aI1
aI1
aI2
aI5
aa(lp1023
I1022
aI82
aI389
aI12
aI2
aI12
aI0
aI1
aI11
aI5
aa(lp1024
I1023
aI6
aI282
aI5
aI3
aI16
aI2
aI2
aI9
aI8
aa(lp1025
I1024
aI43
aI458
aI15
aI5
aI12
aI0
aI1
aI11
aI5
aa(lp1026
I1025
aI38
aI121
aI10
aI0
aI0
aI0
aI1
aI2
aI5
aa(lp1027
I1026
aI81
aI156
aI6
aI4
aI13
aI1
aI2
aI14
aI26
aa(lp1028
I1027
aI66
aI945
aI0
aI3
aI13
aI1
aI2
aI9
aI3
aa(lp1029
I1028
aI30
aI531
aI13
aI5
aI12
aI0
aI1
aI11
aI5
aa(lp1030
I1029
aI9
aI181
aI18
aI3
aI14
aI1
aI2
aI16
aI4
aa(lp1031
I1030
aI65
aI1130
aI5
aI5
aI13
aI2
aI2
aI6
aI9
aa(lp1032
I1031
aI43
aI769
aI8
aI3
aI14
aI1
aI2
aI4
aI1
aa(lp1033
I1032
aI9
aI1097
aI5
aI5
aI16
aI2
aI2
aI14
aI20
aa(lp1034
I1033
aI30
aI981
aI2
aI3
aI13
aI2
aI2
aI9
aI8
aa(lp1035
I1034
aI5
aI619
aI18
aI3
aI18
aI2
aI2
aI9
aI8
aa(lp1036
I1035
aI87
aI673
aI2
aI3
aI3
aI2
aI2
aI9
aI8
aa(lp1037
I1036
aI66
aI213
aI15
aI3
aI14
aI1
aI2
aI6
aI9
aa(lp1038
I1037
aI30
aI596
aI18
aI3
aI15
aI2
aI2
aI9
aI8
aa(lp1039
I1038
aI59
aI798
aI6
aI2
aI12
aI1
aI1
aI2
aI5
aa(lp1040
I1039
aI121
aI537
aI6
aI5
aI12
aI0
aI1
aI2
aI5
aa(lp1041
I1040
aI80
aI75
aI16
aI3
aI14
aI1
aI2
aI15
aI30
aa(lp1042
I1041
aI42
aI888
aI9
aI0
aI0
aI0
aI1
aI2
aI5
aa(lp1043
I1042
aI59
aI230
aI10
aI0
aI0
aI0
aI1
aI2
aI5
aa(lp1044
I1043
aI66
aI1081
aI18
aI3
aI18
aI2
aI2
aI9
aI8
aa(lp1045
I1044
aI66
aI435
aI1
aI4
aI11
aI2
aI2
aI4
aI23
aa(lp1046
I1045
aI65
aI566
aI2
aI0
aI0
aI1
aI1
aI2
aI5
aa(lp1047
I1046
aI43
aI344
aI14
aI0
aI0
aI1
aI1
aI11
aI5
aa(lp1048
I1047
aI30
aI194
aI14
aI2
aI11
aI1
aI2
aI9
aI3
aa(lp1049
I1048
aI118
aI492
aI17
aI0
aI0
aI0
aI1
aI11
aI5
aa(lp1050
I1049
aI30
aI531
aI16
aI3
aI15
aI2
aI2
aI9
aI8
aa(lp1051
I1050
aI37
aI127
aI13
aI3
aI11
aI1
aI2
aI14
aI20
aa(lp1052
I1051
aI67
aI497
aI4
aI3
aI14
aI2
aI2
aI14
aI20
aa(lp1053
I1052
aI67
aI675
aI8
aI0
aI0
aI0
aI1
aI2
aI5
aa(lp1054
I1053
aI67
aI339
aI0
aI0
aI0
aI1
aI1
aI2
aI5
aa(lp1055
I1054
aI87
aI1106
aI13
aI5
aI11
aI1
aI2
aI15
aI25
aa(lp1056
I1055
aI87
aI172
aI15
aI5
aI13
aI1
aI2
aI15
aI25
aa(lp1057
I1056
aI67
aI709
aI15
aI3
aI16
aI2
aI2
aI15
aI25
aa(lp1058
I1057
aI9
aI592
aI0
aI2
aI11
aI1
aI2
aI9
aI3
aa(lp1059
I1058
aI96
aI179
aI11
aI3
aI14
aI1
aI2
aI15
aI24
aa(lp1060
I1059
aI82
aI220
aI4
aI4
aI14
aI1
aI2
aI14
aI20
aa(lp1061
I1060
aI81
aI853
aI13
aI4
aI11
aI1
aI2
aI6
aI9
aa(lp1062
I1061
aI81
aI541
aI0
aI4
aI3
aI2
aI2
aI9
aI8
aa(lp1063
I1062
aI109
aI992
aI18
aI5
aI18
aI2
aI2
aI9
aI8
aa(lp1064
I1063
aI75
aI678
aI8
aI0
aI0
aI0
aI1
aI2
aI5
aa(lp1065
I1064
aI88
aI158
aI14
aI5
aI12
aI0
aI1
aI11
aI5
aa(lp1066
I1065
aI66
aI435
aI11
aI3
aI11
aI1
aI2
aI16
aI4
aa(lp1067
I1066
aI65
aI1101
aI18
aI3
aI18
aI2
aI2
aI9
aI8
aa(lp1068
I1067
aI121
aI851
aI13
aI1
aI11
aI1
aI2
aI14
aI20
aa(lp1069
I1068
aI67
aI609
aI2
aI4
aI14
aI0
aI2
aI9
aI3
aa(lp1070
I1069
aI62
aI579
aI9
aI0
aI0
aI0
aI1
aI2
aI5
aa(lp1071
I1070
aI88
aI1014
aI5
aI0
aI0
aI1
aI1
aI2
aI5
aa(lp1072
I1071
aI59
aI764
aI13
aI4
aI14
aI1
aI2
aI14
aI20
aa(lp1073
I1072
aI117
aI352
aI13
aI4
aI11
aI0
aI1
aI2
aI5
aa(lp1074
I1073
aI87
aI73
aI3
aI5
aI11
aI1
aI2
aI4
aI1
aa(lp1075
I1074
aI67
aI134
aI16
aI3
aI14
aI1
aI2
aI16
aI18
aa(lp1076
I1075
aI32
aI755
aI0
aI4
aI13
aI0
aI2
aI9
aI3
aa(lp1077
I1076
aI82
aI310
aI3
aI3
aI11
aI1
aI2
aI14
aI26
aa(lp1078
I1077
aI94
aI26
aI5
aI3
aI14
aI2
aI2
aI9
aI8
aa(lp1079
I1078
aI121
aI851
aI13
aI5
aI11
aI1
aI2
aI16
aI18
aa(lp1080
I1079
aI79
aI598
aI3
aI5
aI17
aI2
aI2
aI9
aI8
aa(lp1081
I1080
aI87
aI742
aI7
aI5
aI12
aI0
aI1
aI2
aI5
aa(lp1082
I1081
aI81
aI488
aI12
aI3
aI12
aI1
aI1
aI11
aI5
aa(lp1083
I1082
aI30
aI332
aI8
aI5
aI11
aI1
aI2
aI3
aI16
aa(lp1084
I1083
aI3
aI232
aI12
aI3
aI13
aI1
aI2
aI14
aI20
aa(lp1085
I1084
aI37
aI27
aI5
aI3
aI18
aI2
aI2
aI9
aI8
aa(lp1086
I1085
aI96
aI1131
aI1
aI3
aI15
aI2
aI2
aI9
aI8
aa(lp1087
I1086
aI65
aI322
aI3
aI3
aI13
aI1
aI2
aI14
aI20
aa(lp1088
I1087
aI65
aI1038
aI10
aI3
aI16
aI0
aI2
aI4
aI37
aa(lp1089
I1088
aI67
aI725
aI1
aI3
aI11
aI0
aI2
aI6
aI9
aa(lp1090
I1089
aI67
aI809
aI7
aI3
aI11
aI2
aI2
aI15
aI30
aa(lp1091
I1090
aI9
aI383
aI13
aI0
aI0
aI0
aI1
aI11
aI5
aa(lp1092
I1091
aI85
aI824
aI15
aI4
aI14
aI0
aI2
aI9
aI3
aa(lp1093
I1092
aI67
aI315
aI0
aI3
aI17
aI2
aI2
aI9
aI8
aa(lp1094
I1093
aI66
aI1024
aI14
aI2
aI11
aI1
aI2
aI3
aI39
aa(lp1095
I1094
aI67
aI466
aI2
aI3
aI17
aI2
aI2
aI9
aI8
aa(lp1096
I1095
aI43
aI1015
aI12
aI3
aI12
aI1
aI1
aI11
aI5
aa(lp1097
I1096
aI67
aI639
aI1
aI3
aI11
aI1
aI2
aI9
aI3
aa(lp1098
I1097
aI12
aI477
aI5
aI4
aI16
aI2
aI2
aI9
aI8
aa(lp1099
I1098
aI66
aI85
aI11
aI4
aI11
aI1
aI2
aI9
aI3
aa(lp1100
I1099
aI81
aI155
aI6
aI4
aI14
aI1
aI2
aI4
aI21
aa(lp1101
I1100
aI67
aI489
aI9
aI5
aI14
aI1
aI2
aI15
aI30
aa(lp1102
I1101
aI82
aI745
aI2
aI3
aI18
aI2
aI2
aI9
aI8
aa(lp1103
I1102
aI81
aI1076
aI1
aI3
aI17
aI2
aI2
aI9
aI8
aa(lp1104
I1103
aI88
aI936
aI13
aI3
aI11
aI1
aI2
aI14
aI35
aa(lp1105
I1104
aI67
aI1116
aI8
aI3
aI12
aI0
aI1
aI2
aI5
aa(lp1106
I1105
aI9
aI250
aI16
aI3
aI14
aI1
aI2
aI16
aI19
aa(lp1107
I1106
aI3
aI112
aI11
aI4
aI12
aI1
aI2
aI9
aI3
aa(lp1108
I1107
aI49
aI885
aI17
aI3
aI11
aI1
aI2
aI15
aI25
aa(lp1109
I1108
aI87
aI1126
aI10
aI5
aI18
aI2
aI2
aI10
aI40
aa(lp1110
I1109
aI65
aI772
aI3
aI3
aI20
aI2
aI2
aI9
aI8
aa(lp1111
I1110
aI9
aI286
aI5
aI3
aI13
aI1
aI2
aI16
aI4
aa(lp1112
I1111
aI67
aI697
aI14
aI3
aI12
aI0
aI1
aI11
aI5
aa(lp1113
I1112
aI30
aI1028
aI0
aI4
aI17
aI2
aI2
aI9
aI8
aa(lp1114
I1113
aI88
aI722
aI12
aI4
aI12
aI0
aI1
aI11
aI5
aa(lp1115
I1114
aI67
aI943
aI11
aI5
aI11
aI1
aI2
aI16
aI4
aa(lp1116
I1115
aI65
aI388
aI3
aI1
aI14
aI2
aI2
aI9
aI3
aa(lp1117
I1116
aI87
aI526
aI13
aI5
aI12
aI0
aI1
aI11
aI5
aa(lp1118
I1117
aI81
aI11
aI18
aI3
aI20
aI2
aI2
aI9
aI8
aa(lp1119
I1118
aI9
aI1093
aI4
aI3
aI16
aI2
aI2
aI16
aI18
aa(lp1120
I1119
aI9
aI378
aI7
aI3
aI11
aI1
aI2
aI16
aI41
aa(lp1121
I1120
aI43
aI325
aI2
aI3
aI16
aI2
aI2
aI9
aI8
aa(lp1122
I1121
aI33
aI955
aI2
aI4
aI8
aI2
aI2
aI9
aI8
aa(lp1123
I1122
aI107
aI719
aI13
aI5
aI16
aI1
aI2
aI14
aI26
aa(lp1124
I1123
aI66
aI683
aI8
aI5
aI12
aI0
aI1
aI2
aI5
aa(lp1125
I1124
aI66
aI416
aI1
aI3
aI16
aI0
aI2
aI15
aI24
aa(lp1126
I1125
aI81
aI47
aI5
aI1
aI5
aI2
aI2
aI9
aI8
aa(lp1127
I1126
aI48
aI963
aI2
aI3
aI18
aI2
aI2
aI9
aI8
aa(lp1128
I1127
aI121
aI611
aI3
aI3
aI14
aI2
aI2
aI6
aI9
aa(lp1129
I1128
aI66
aI290
aI7
aI3
aI13
aI2
aI2
aI16
aI18
aa(lp1130
I1129
aI96
aI591
aI4
aI4
aI18
aI2
aI2
aI9
aI8
aa(lp1131
I1130
aI88
aI174
aI18
aI3
aI11
aI1
aI2
aI14
aI20
aa(lp1132
I1131
aI85
aI443
aI13
aI3
aI14
aI0
aI2
aI9
aI3
aa(lp1133
I1132
aI67
aI627
aI3
aI0
aI0
aI1
aI1
aI2
aI5
aa(lp1134
I1133
aI85
aI539
aI17
aI0
aI0
aI1
aI1
aI11
aI5
aa(lp1135
I1134
aI94
aI1138
aI2
aI4
aI18
aI2
aI2
aI9
aI8
aa(lp1136
I1135
aI82
aI1147
aI3
aI3
aI8
aI2
aI2
aI9
aI8
aa(lp1137
I1136
aI90
aI82
aI3
aI0
aI0
aI1
aI1
aI2
aI5
aa(lp1138
I1137
aI69
aI700
aI6
aI0
aI0
aI1
aI1
aI2
aI5
aa(lp1139
I1138
aI87
aI1126
aI19
aI3
aI14
aI1
aI2
aI16
aI4
aa(lp1140
I1139
aI90
aI88
aI3
aI4
aI18
aI2
aI2
aI9
aI8
aa(lp1141
I1140
aI67
aI1032
aI4
aI3
aI14
aI1
aI2
aI8
aI15
aa(lp1142
I1141
aI85
aI111
aI15
aI3
aI14
aI1
aI2
aI16
aI41
aa(lp1143
I1142
aI51
aI703
aI8
aI3
aI14
aI1
aI2
aI4
aI1
aa(lp1144
I1143
aI88
aI693
aI15
aI5
aI13
aI1
aI2
aI15
aI25
aa(lp1145
I1144
aI67
aI301
aI9
aI0
aI0
aI0
aI1
aI2
aI5
aa(lp1146
I1145
aI67
aI247
aI1
aI3
aI11
aI1
aI2
aI6
aI9
aa(lp1147
I1146
aI66
aI581
aI7
aI5
aI12
aI0
aI1
aI2
aI5
aa(lp1148
I1147
aI87
aI680
aI18
aI1
aI13
aI1
aI2
aI14
aI20
aa(lp1149
I1148
aI33
aI770
aI16
aI0
aI0
aI1
aI1
aI2
aI5
aa(lp1150
I1149
aI96
aI886
aI17
aI4
aI11
aI1
aI2
aI9
aI8
aa(lp1151
I1150
aI67
aI1003
aI8
aI5
aI12
aI0
aI1
aI2
aI5
aa(lp1152
I1151
aI30
aI734
aI18
aI4
aI20
aI2
aI2
aI9
aI8
aa(lp1153
I1152
aI67
aI1116
aI1
aI3
aI16
aI1
aI2
aI6
aI9
aa(lp1154
I1153
aI67
aI1065
aI19
aI3
aI18
aI2
aI2
aI9
aI8
aa(lp1155
I1154
aI38
aI390
aI17
aI4
aI11
aI1
aI2
aI9
aI3
aa(lp1156
I1155
aI88
aI442
aI4
aI3
aI11
aI1
aI2
aI14
aI20
aa(lp1157
I1156
aI17
aI887
aI9
aI0
aI0
aI0
aI1
aI2
aI5
aa(lp1158
I1157
aI65
aI1043
aI14
aI4
aI11
aI1
aI2
aI16
aI18
aa(lp1159
I1158
aI9
aI589
aI1
aI0
aI0
aI1
aI1
aI2
aI5
aa(lp1160
I1159
aI9
aI521
aI4
aI4
aI14
aI1
aI2
aI4
aI2
aa(lp1161
I1160
aI67
aI854
aI17
aI0
aI0
aI0
aI1
aI11
aI5
aa(lp1162
I1161
aI110
aI147
aI3
aI4
aI13
aI2
aI2
aI9
aI8
aa(lp1163
I1162
aI67
aI519
aI1
aI3
aI11
aI1
aI2
aI6
aI0
aa(lp1164
I1163
aI67
aI1032
aI7
aI3
aI11
aI1
aI2
aI16
aI4
aa(lp1165
I1164
aI64
aI16
aI17
aI5
aI16
aI2
aI2
aI15
aI30
aa(lp1166
I1165
aI81
aI568
aI0
aI4
aI17
aI2
aI2
aI9
aI8
aa(lp1167
I1166
aI82
aI470
aI3
aI3
aI18
aI2
aI2
aI9
aI8
aa(lp1168
I1167
aI42
aI468
aI9
aI0
aI0
aI0
aI1
aI2
aI5
aa(lp1169
I1168
aI53
aI371
aI9
aI0
aI0
aI0
aI1
aI2
aI5
aa(lp1170
I1169
aI88
aI211
aI7
aI1
aI13
aI1
aI2
aI14
aI20
aa(lp1171
I1170
aI59
aI656
aI7
aI0
aI0
aI1
aI1
aI2
aI5
aa(lp1172
I1171
aI48
aI959
aI5
aI4
aI15
aI2
aI2
aI9
aI8
aa(lp1173
I1172
aI88
aI585
aI10
aI1
aI13
aI2
aI2
aI3
aI16
aa(lp1174
I1173
aI9
aI895
aI4
aI3
aI13
aI0
aI2
aI9
aI8
aa(lp1175
I1174
aI66
aI557
aI12
aI0
aI0
aI1
aI1
aI11
aI5
aa(lp1176
I1175
aI80
aI487
aI17
aI3
aI13
aI1
aI2
aI16
aI18
aa(lp1177
I1176
aI27
aI214
aI6
aI4
aI12
aI0
aI1
aI2
aI5
aa(lp1178
I1177
aI9
aI978
aI0
aI3
aI13
aI1
aI2
aI14
aI20
aa(lp1179
I1178
aI121
aI122
aI14
aI1
aI14
aI1
aI2
aI9
aI3
aa(lp1180
I1179
aI96
aI964
aI12
aI3
aI11
aI1
aI2
aI16
aI41
aa(lp1181
I1180
aI9
aI1093
aI18
aI3
aI13
aI0
aI2
aI6
aI9
aa(lp1182
I1181
aI27
aI615
aI4
aI3
aI3
aI2
aI2
aI9
aI8
aa(lp1183
I1182
aI30
aI531
aI19
aI3
aI14
aI1
aI2
aI15
aI25
aa(lp1184
I1183
aI67
aI1098
aI4
aI0
aI0
aI1
aI1
aI2
aI5
aa(lp1185
I1184
aI66
aI606
aI14
aI3
aI16
aI1
aI2
aI15
aI25
aa(lp1186
I1185
aI66
aI209
aI11
aI1
aI12
aI1
aI2
aI9
aI3
aa(lp1187
I1186
aI3
aI597
aI14
aI0
aI0
aI1
aI1
aI2
aI5
aa(lp1188
I1187
aI1
aI372
aI2
aI3
aI15
aI2
aI2
aI9
aI8
aa(lp1189
I1188
aI66
aI737
aI11
aI3
aI14
aI1
aI2
aI15
aI25
aa(lp1190
I1189
aI19
aI1151
aI11
aI3
aI12
aI1
aI2
aI4
aI1
aa(lp1191
I1190
aI82
aI314
aI2
aI3
aI9
aI2
aI2
aI9
aI8
aa(lp1192
I1191
aI55
aI254
aI4
aI0
aI0
aI1
aI1
aI2
aI5
aa(lp1193
I1192
aI65
aI430
aI9
aI3
aI13
aI2
aI2
aI10
aI27
aa(lp1194
I1193
aI67
aI642
aI16
aI5
aI11
aI1
aI2
aI15
aI25
aa(lp1195
I1194
aI82
aI496
aI5
aI0
aI0
aI1
aI1
aI2
aI5
aa(lp1196
I1195
aI88
aI1006
aI5
aI4
aI18
aI2
aI2
aI9
aI8
aa(lp1197
I1196
aI25
aI548
aI7
aI5
aI12
aI0
aI1
aI2
aI5
aa(lp1198
I1197
aI65
aI1096
aI1
aI3
aI1
aI2
aI2
aI9
aI8
aa(lp1199
I1198
aI67
aI643
aI4
aI3
aI14
aI2
aI2
aI14
aI20
aa(lp1200
I1199
aI65
aI880
aI19
aI0
aI0
aI0
aI1
aI11
aI5
aa(lp1201
I1200
aI88
aI704
aI14
aI5
aI12
aI0
aI1
aI11
aI5
aa(lp1202
I1201
aI59
aI436
aI16
aI3
aI16
aI1
aI2
aI14
aI20
aa(lp1203
I1202
aI86
aI1016
aI17
aI4
aI13
aI2
aI2
aI9
aI8
aa(lp1204
I1203
aI67
aI153
aI14
aI3
aI16
aI2
aI2
aI15
aI25
aa(lp1205
I1204
aI67
aI153
aI7
aI3
aI12
aI0
aI1
aI2
aI5
aa(lp1206
I1205
aI27
aI634
aI15
aI5
aI14
aI1
aI2
aI14
aI20
aa(lp1207
I1206
aI65
aI186
aI4
aI0
aI0
aI1
aI1
aI2
aI5
aa(lp1208
I1207
aI109
aI1004
aI3
aI3
aI15
aI2
aI2
aI9
aI8
aa(lp1209
I1208
aI121
aI226
aI4
aI3
aI13
aI0
aI2
aI9
aI8
aa(lp1210
I1209
aI67
aI153
aI8
aI1
aI11
aI1
aI2
aI4
aI22
aa(lp1211
I1210
aI41
aI804
aI4
aI4
aI16
aI2
aI2
aI9
aI8
aa(lp1212
I1211
aI87
aI399
aI19
aI3
aI19
aI2
aI2
aI9
aI8
aa(lp1213
I1212
aI117
aI200
aI6
aI0
aI0
aI1
aI1
aI2
aI5
aa(lp1214
I1213
aI65
aI86
aI0
aI3
aI18
aI2
aI2
aI6
aI9
aa(lp1215
I1214
aI67
aI255
aI16
aI1
aI12
aI1
aI2
aI4
aI17
aa(lp1216
I1215
aI43
aI1001
aI15
aI0
aI0
aI0
aI1
aI11
aI5
aa(lp1217
I1216
aI66
aI653
aI19
aI1
aI11
aI1
aI2
aI9
aI3
aa(lp1218
I1217
aI80
aI171
aI4
aI4
aI1
aI2
aI2
aI9
aI8
aa(lp1219
I1218
aI65
aI836
aI14
aI5
aI12
aI0
aI1
aI11
aI5
aa(lp1220
I1219
aI80
aI1020
aI19
aI3
aI16
aI2
aI2
aI9
aI8
aa(lp1221
I1220
aI66
aI209
aI13
aI0
aI0
aI1
aI1
aI11
aI5
aa(lp1222
I1221
aI55
aI814
aI14
aI5
aI17
aI1
aI2
aI15
aI25
aa(lp1223
I1222
aI3
aI274
aI18
aI1
aI14
aI1
aI2
aI9
aI3
aa(lp1224
I1223
aI67
aI1127
aI17
aI3
aI11
aI1
aI2
aI3
aI13
aa(lp1225
I1224
aI117
aI805
aI5
aI4
aI15
aI2
aI2
aI9
aI8
aa(lp1226
I1225
aI30
aI195
aI14
aI1
aI11
aI1
aI2
aI9
aI3
aa(lp1227
I1226
aI9
aI361
aI6
aI3
aI12
aI0
aI1
aI2
aI5
aa(lp1228
I1227
aI88
aI442
aI0
aI3
aI12
aI1
aI1
aI2
aI5
aa(lp1229
I1228
aI87
aI221
aI5
aI5
aI12
aI0
aI1
aI2
aI5
aa(lp1230
I1229
aI81
aI132
aI17
aI4
aI11
aI1
aI1
aI2
aI5
aa(lp1231
I1230
aI87
aI1155
aI13
aI5
aI11
aI1
aI2
aI16
aI41
aa(lp1232
I1231
aI26
aI890
aI8
aI0
aI0
aI0
aI1
aI2
aI5
aa(lp1233
I1232
aI30
aI1069
aI17
aI0
aI0
aI1
aI1
aI2
aI5
aa(lp1234
I1233
aI94
aI618
aI18
aI3
aI13
aI2
aI2
aI9
aI8
aa(lp1235
I1234
aI19
aI549
aI17
aI3
aI16
aI2
aI2
aI9
aI8
aa(lp1236
I1235
aI87
aI172
aI19
aI4
aI11
aI1
aI2
aI9
aI3
aa(lp1237
I1236
aI59
aI230
aI5
aI2
aI12
aI1
aI1
aI2
aI5
aa(lp1238
I1237
aI65
aI1099
aI0
aI3
aI15
aI2
aI2
aI9
aI8
aa(lp1239
I1238
aI88
aI585
aI13
aI5
aI12
aI0
aI1
aI11
aI5
aa(lp1240
I1239
aI88
aI840
aI17
aI5
aI12
aI0
aI1
aI11
aI5
aa(lp1241
I1240
aI66
aI85
aI11
aI4
aI12
aI1
aI2
aI9
aI3
aa(lp1242
I1241
aI67
aI1054
aI17
aI5
aI14
aI1
aI2
aI15
aI25
aa(lp1243
I1242
aI27
aI214
aI17
aI4
aI14
aI2
aI2
aI9
aI3
aa(lp1244
I1243
aI80
aI1156
aI11
aI3
aI11
aI1
aI2
aI15
aI25
aa(lp1245
I1244
aI66
aI825
aI3
aI3
aI5
aI2
aI2
aI9
aI8
aa(lp1246
I1245
aI67
aI168
aI15
aI2
aI12
aI0
aI1
aI11
aI5
aa(lp1247
I1246
aI9
aI1093
aI5
aI4
aI14
aI1
aI2
aI9
aI11
aa(lp1248
I1247
aI82
aI902
aI16
aI3
aI13
aI1
aI2
aI9
aI3
aa(lp1249
I1248
aI3
aI573
aI17
aI0
aI0
aI1
aI1
aI2
aI5
aa(lp1250
I1249
aI9
aI520
aI3
aI3
aI16
aI2
aI2
aI9
aI3
aa(lp1251
I1250
aI81
aI533
aI13
aI4
aI12
aI0
aI1
aI11
aI5
aa(lp1252
I1251
aI9
aI124
aI16
aI3
aI13
aI1
aI2
aI14
aI20
aa(lp1253
I1252
aI87
aI680
aI7
aI3
aI16
aI2
aI2
aI16
aI18
aa(lp1254
I1253
aI117
aI289
aI6
aI0
aI0
aI1
aI1
aI2
aI5
aa(lp1255
I1254
aI10
aI483
aI9
aI5
aI12
aI1
aI1
aI2
aI5
aa(lp1256
I1255
aI100
aI25
aI7
aI4
aI15
aI2
aI2
aI9
aI8
aa(lp1257
I1256
aI65
aI1117
aI5
aI0
aI0
aI1
aI1
aI2
aI5
aa(lp1258
I1257
aI33
aI59
aI9
aI0
aI0
aI0
aI1
aI2
aI5
aa(lp1259
I1258
aI9
aI485
aI13
aI5
aI13
aI0
aI2
aI15
aI30
aa(lp1260
I1259
aI10
aI1084
aI1
aI4
aI13
aI1
aI2
aI9
aI3
aa(lp1261
I1260
aI66
aI1072
aI17
aI4
aI11
aI1
aI2
aI14
aI20
aa(lp1262
I1261
aI65
aI42
aI4
aI4
aI14
aI1
aI2
aI9
aI11
aa(lp1263
I1262
aI87
aI680
aI3
aI3
aI13
aI2
aI2
aI6
aI9
aa(lp1264
I1263
aI48
aI1071
aI6
aI4
aI12
aI0
aI1
aI2
aI5
aa(lp1265
I1264
aI76
aI987
aI9
aI0
aI0
aI0
aI1
aI2
aI5
aa(lp1266
I1265
aI96
aI848
aI11
aI4
aI11
aI1
aI2
aI15
aI25
aa(lp1267
I1266
aI65
aI42
aI14
aI2
aI12
aI1
aI1
aI11
aI5
aa(lp1268
I1267
aI38
aI480
aI9
aI0
aI0
aI1
aI1
aI2
aI5
aa(lp1269
I1268
aI87
aI575
aI19
aI5
aI12
aI0
aI1
aI2
aI5
aa(lp1270
I1269
aI33
aI1107
aI11
aI4
aI12
aI0
aI1
aI11
aI5
aa(lp1271
I1270
aI65
aI113
aI0
aI3
aI14
aI2
aI2
aI15
aI24
aa(lp1272
I1271
aI9
aI523
aI6
aI5
aI12
aI0
aI1
aI2
aI5
aa(lp1273
I1272
aI3
aI474
aI11
aI3
aI11
aI1
aI2
aI16
aI18
aa(lp1274
I1273
aI87
aI499
aI0
aI3
aI20
aI2
aI2
aI9
aI8
aa(lp1275
I1274
aI81
aI853
aI11
aI3
aI12
aI1
aI2
aI15
aI30
aa(lp1276
I1275
aI40
aI348
aI5
aI1
aI20
aI2
aI2
aI9
aI8
aa(lp1277
I1276
aI30
aI813
aI17
aI1
aI14
aI1
aI2
aI9
aI3
aa(lp1278
I1277
aI43
aI603
aI5
aI3
aI15
aI2
aI2
aI9
aI8
aa(lp1279
I1278
aI1
aI62
aI14
aI3
aI11
aI1
aI2
aI15
aI30
aa(lp1280
I1279
aI43
aI154
aI12
aI3
aI12
aI0
aI1
aI11
aI5
aa(lp1281
I1280
aI59
aI207
aI19
aI3
aI11
aI1
aI2
aI10
aI32
aa(lp1282
I1281
aI117
aI460
aI0
aI3
aI15
aI2
aI2
aI9
aI8
aa(lp1283
I1282
aI66
aI1007
aI16
aI4
aI14
aI2
aI2
aI9
aI3
aa(lp1284
I1283
aI37
aI18
aI8
aI5
aI12
aI0
aI1
aI2
aI5
aa(lp1285
I1284
aI55
aI720
aI3
aI3
aI16
aI2
aI2
aI9
aI8
aa(lp1286
I1285
aI9
aI849
aI1
aI2
aI11
aI1
aI2
aI9
aI3
aa(lp1287
I1286
aI65
aI256
aI9
aI5
aI14
aI1
aI2
aI16
aI18
aa(lp1288
I1287
aI66
aI608
aI14
aI3
aI14
aI1
aI2
aI14
aI35
aa(lp1289
I1288
aI9
aI1094
aI15
aI3
aI14
aI2
aI2
aI15
aI25
aa(lp1290
I1289
aI67
aI554
aI10
aI1
aI11
aI1
aI2
aI4
aI28
aa(lp1291
I1290
aI19
aI962
aI17
aI5
aI14
aI0
aI2
aI15
aI30
aa(lp1292
I1291
aI81
aI552
aI10
aI4
aI18
aI2
aI2
aI4
aI23
aa(lp1293
I1292
aI81
aI711
aI16
aI3
aI1
aI2
aI2
aI9
aI8
aa(lp1294
I1293
aI9
aI264
aI18
aI3
aI16
aI2
aI2
aI6
aI0
aa(lp1295
I1294
aI30
aI194
aI17
aI4
aI14
aI2
aI2
aI9
aI8
aa(lp1296
I1295
aI62
aI272
aI7
aI3
aI14
aI1
aI2
aI6
aI0
aa(lp1297
I1296
aI67
aI921
aI8
aI5
aI12
aI0
aI1
aI2
aI5
aa(lp1298
I1297
aI65
aI19
aI1
aI3
aI20
aI2
aI2
aI9
aI8
aa(lp1299
I1298
aI82
aI868
aI19
aI5
aI14
aI1
aI2
aI15
aI25
aa(lp1300
I1299
aI117
aI68
aI2
aI3
aI19
aI2
aI2
aI9
aI8
aa(lp1301
I1300
aI9
aI485
aI12
aI3
aI14
aI1
aI2
aI16
aI18
aa(lp1302
I1301
aI47
aI560
aI18
aI5
aI16
aI2
aI2
aI15
aI30
aa(lp1303
I1302
aI65
aI980
aI8
aI0
aI0
aI0
aI1
aI2
aI5
aa(lp1304
I1303
aI67
aI709
aI14
aI2
aI12
aI0
aI1
aI11
aI5
aa(lp1305
I1304
aI66
aI892
aI9
aI0
aI0
aI0
aI1
aI2
aI5
aa(lp1306
I1305
aI118
aI201
aI11
aI4
aI12
aI1
aI2
aI16
aI18
aa(lp1307
I1306
aI65
aI94
aI8
aI0
aI0
aI0
aI1
aI2
aI5
aa(lp1308
I1307
aI88
aI936
aI17
aI5
aI11
aI1
aI2
aI14
aI35
aa(lp1309
I1308
aI9
aI146
aI17
aI4
aI8
aI1
aI2
aI9
aI3
aa(lp1310
I1309
aI67
aI554
aI18
aI4
aI15
aI0
aI2
aI6
aI0
aa(lp1311
I1310
aI30
aI79
aI7
aI5
aI12
aI0
aI1
aI2
aI5
aa(lp1312
I1311
aI81
aI488
aI10
aI4
aI15
aI2
aI2
aI3
aI16
aa(lp1313
I1312
aI7
aI190
aI1
aI3
aI15
aI2
aI2
aI9
aI8
aa(lp1314
I1313
aI21
aI744
aI4
aI3
aI18
aI2
aI2
aI9
aI8
aa(lp1315
I1314
aI30
aI407
aI18
aI3
aI15
aI2
aI2
aI9
aI8
aa(lp1316
I1315
aI65
aI396
aI0
aI3
aI2
aI2
aI2
aI9
aI8
aa(lp1317
I1316
aI67
aI1061
aI9
aI4
aI14
aI1
aI2
aI3
aI13
aa(lp1318
I1317
aI67
aI1110
aI1
aI3
aI11
aI0
aI2
aI6
aI9
aa(lp1319
I1318
aI9
aI1093
aI15
aI3
aI13
aI0
aI2
aI15
aI30
aa(lp1320
I1319
aI30
aI237
aI19
aI3
aI13
aI2
aI2
aI9
aI3
aa(lp1321
I1320
aI67
aI1127
aI4
aI2
aI11
aI1
aI2
aI4
aI1
aa(lp1322
I1321
aI67
aI1114
aI9
aI5
aI11
aI1
aI2
aI14
aI20
aa(lp1323
I1322
aI9
aI1093
aI10
aI5
aI20
aI2
aI2
aI10
aI40
aa(lp1324
I1323
aI3
aI563
aI11
aI3
aI12
aI1
aI2
aI15
aI30
aa(lp1325
I1324
aI87
aI73
aI1
aI3
aI19
aI2
aI2
aI9
aI8
aa(lp1326
I1325
aI66
aI317
aI0
aI3
aI16
aI0
aI2
aI6
aI0
aa(lp1327
I1326
aI118
aI1158
aI9
aI5
aI12
aI1
aI1
aI2
aI5
aa(lp1328
I1327
aI9
aI974
aI6
aI3
aI12
aI0
aI1
aI2
aI5
aa(lp1329
I1328
aI65
aI249
aI8
aI4
aI14
aI1
aI2
aI4
aI1
aa(lp1330
I1329
aI87
aI172
aI14
aI5
aI12
aI0
aI1
aI11
aI5
aa(lp1331
I1330
aI57
aI1048
aI18
aI4
aI14
aI2
aI2
aI9
aI8
aa(lp1332
I1331
aI67
aI153
aI0
aI3
aI11
aI1
aI2
aI3
aI13
aa(lp1333
I1332
aI9
aI1093
aI4
aI3
aI5
aI2
aI2
aI9
aI8
aa(lp1334
I1333
aI81
aI973
aI11
aI3
aI11
aI1
aI2
aI14
aI26
aa(lp1335
I1334
aI9
aI760
aI15
aI0
aI0
aI0
aI1
aI11
aI5
aa(lp1336
I1335
aI82
aI389
aI18
aI3
aI15
aI2
aI2
aI9
aI8
aa(lp1337
I1336
aI118
aI492
aI3
aI0
aI0
aI1
aI1
aI11
aI5
aa(lp1338
I1337
aI87
aI673
aI8
aI3
aI14
aI1
aI2
aI3
aI13
aa(lp1339
I1338
aI67
aI924
aI16
aI4
aI14
aI2
aI2
aI9
aI3
aa(lp1340
I1339
aI117
aI751
aI3
aI3
aI19
aI2
aI2
aI9
aI8
aa(lp1341
I1340
aI65
aI574
aI9
aI3
aI16
aI1
aI2
aI4
aI1
aa(lp1342
I1341
aI81
aI228
aI15
aI3
aI13
aI1
aI2
aI9
aI3
aa(lp1343
I1342
aI59
aI436
aI2
aI4
aI14
aI1
aI2
aI6
aI9
aa(lp1344
I1343
aI9
aI1094
aI19
aI3
aI13
aI0
aI2
aI6
aI0
aa(lp1345
I1344
aI65
aI535
aI7
aI5
aI12
aI1
aI1
aI2
aI5
aa(lp1346
I1345
aI9
aI146
aI15
aI5
aI14
aI1
aI2
aI16
aI18
aa(lp1347
I1346
aI9
aI287
aI8
aI0
aI0
aI0
aI1
aI2
aI5
aa(lp1348
I1347
aI30
aI195
aI1
aI4
aI8
aI2
aI2
aI9
aI8
aa(lp1349
I1348
aI67
aI501
aI1
aI3
aI16
aI2
aI2
aI9
aI8
aa(lp1350
I1349
aI9
aI668
aI5
aI3
aI13
aI2
aI2
aI6
aI0
aa(lp1351
I1350
aI9
aI1093
aI3
aI3
aI10
aI2
aI2
aI9
aI8
aa(lp1352
I1351
aI59
aI436
aI17
aI3
aI14
aI1
aI2
aI15
aI25
aa(lp1353
I1352
aI30
aI368
aI3
aI3
aI17
aI2
aI2
aI9
aI8
aa(lp1354
I1353
aI30
aI862
aI15
aI2
aI13
aI1
aI2
aI9
aI3
aa(lp1355
I1354
aI9
aI225
aI19
aI3
aI20
aI1
aI2
aI9
aI3
aa(lp1356
I1355
aI87
aI215
aI1
aI3
aI9
aI2
aI2
aI9
aI8
aa(lp1357
I1356
aI89
aI569
aI2
aI4
aI1
aI2
aI2
aI9
aI8
aa(lp1358
I1357
aI62
aI561
aI9
aI0
aI0
aI0
aI1
aI2
aI5
aa(lp1359
I1358
aI67
aI1085
aI8
aI0
aI0
aI0
aI1
aI2
aI5
aa(lp1360
I1359
aI43
aI1015
aI2
aI3
aI18
aI2
aI2
aI9
aI8
aa(lp1361
I1360
aI117
aI188
aI12
aI2
aI12
aI0
aI1
aI11
aI5
aa(lp1362
I1361
aI67
aI662
aI15
aI5
aI12
aI0
aI1
aI11
aI5
aa(lp1363
I1362
aI102
aI224
aI4
aI3
aI18
aI2
aI2
aI9
aI8
aa(lp1364
I1363
aI9
aI974
aI4
aI3
aI13
aI2
aI2
aI6
aI0
aa(lp1365
I1364
aI9
aI941
aI10
aI4
aI11
aI2
aI2
aI4
aI22
aa(lp1366
I1365
aI87
aI399
aI1
aI3
aI9
aI2
aI2
aI9
aI8
aa(lp1367
I1366
aI67
aI1127
aI7
aI4
aI11
aI1
aI2
aI3
aI39
aa(lp1368
I1367
aI9
aI629
aI2
aI3
aI14
aI0
aI2
aI9
aI8
aa(lp1369
I1368
aI81
aI935
aI13
aI1
aI12
aI1
aI1
aI11
aI5
aa(lp1370
I1369
aI9
aI631
aI4
aI3
aI14
aI2
aI2
aI14
aI20
aa(lp1371
I1370
aI85
aI318
aI11
aI5
aI14
aI1
aI2
aI15
aI25
aa(lp1372
I1371
aI65
aI916
aI6
aI5
aI13
aI0
aI2
aI9
aI3
aa(lp1373
I1372
aI30
aI847
aI13
aI2
aI19
aI1
aI2
aI9
aI3
aa(lp1374
I1373
aI30
aI657
aI10
aI5
aI12
aI0
aI1
aI2
aI5
aa(lp1375
I1374
aI109
aI684
aI17
aI3
aI14
aI1
aI2
aI9
aI8
aa(lp1376
I1375
aI66
aI979
aI12
aI3
aI11
aI1
aI2
aI6
aI9
aa(lp1377
I1376
aI66
aI1024
aI1
aI4
aI13
aI2
aI2
aI4
aI23
aa(lp1378
I1377
aI101
aI556
aI5
aI3
aI2
aI2
aI2
aI9
aI8
aa(lp1379
I1378
aI81
aI57
aI1
aI3
aI14
aI1
aI2
aI6
aI9
aa(lp1380
I1379
aI67
aI255
aI11
aI5
aI12
aI0
aI1
aI11
aI5
aa(lp1381
I1380
aI43
aI291
aI15
aI5
aI14
aI0
aI2
aI15
aI25
aa(lp1382
I1381
aI43
aI344
aI13
aI3
aI12
aI0
aI1
aI11
aI5
aa(lp1383
I1382
aI43
aI852
aI15
aI5
aI12
aI0
aI1
aI11
aI5
aa(lp1384
I1383
aI9
aI485
aI11
aI3
aI11
aI1
aI2
aI16
aI18
aa(lp1385
I1384
aI66
aI602
aI5
aI4
aI12
aI1
aI2
aI9
aI11
aa(lp1386
I1385
aI67
aI1033
aI16
aI0
aI0
aI1
aI1
aI2
aI5
aa(lp1387
I1386
aI59
aI798
aI2
aI3
aI11
aI1
aI2
aI6
aI9
aa(lp1388
I1387
aI67
aI626
aI18
aI3
aI16
aI1
aI2
aI6
aI0
aa(lp1389
I1388
aI23
aI246
aI5
aI3
aI18
aI2
aI2
aI9
aI8
aa(lp1390
I1389
aI64
aI970
aI2
aI5
aI20
aI2
aI2
aI9
aI8
aa(lp1391
I1390
aI109
aI690
aI19
aI4
aI11
aI1
aI2
aI9
aI3
aa(lp1392
I1391
aI66
aI85
aI11
aI1
aI12
aI1
aI2
aI9
aI3
aa(lp1393
I1392
aI9
aI1091
aI12
aI2
aI13
aI1
aI2
aI3
aI39
aa(lp1394
I1393
aI83
aI893
aI4
aI3
aI17
aI2
aI2
aI9
aI8
aa(lp1395
I1394
aI67
aI1127
aI19
aI0
aI0
aI1
aI1
aI2
aI5
aa(lp1396
I1395
aI82
aI961
aI3
aI3
aI17
aI2
aI2
aI9
aI8
aa(lp1397
I1396
aI30
aI216
aI6
aI5
aI12
aI0
aI1
aI2
aI5
aa(lp1398
I1397
aI93
aI355
aI8
aI0
aI0
aI0
aI1
aI2
aI5
aa(lp1399
I1398
aI67
aI643
aI6
aI3
aI14
aI2
aI2
aI15
aI30
aa(lp1400
I1399
aI65
aI580
aI1
aI3
aI16
aI0
aI2
aI6
aI9
aa(lp1401
I1400
aI59
aI764
aI11
aI3
aI12
aI1
aI2
aI16
aI18
aa(lp1402
I1401
aI81
aI155
aI4
aI3
aI13
aI2
aI2
aI9
aI8
aa(lp1403
I1402
aI9
aI286
aI14
aI3
aI11
aI1
aI2
aI16
aI18
aa(lp1404
I1403
aI30
aI966
aI3
aI1
aI12
aI0
aI1
aI2
aI5
aa(lp1405
I1404
aI67
aI924
aI16
aI4
aI14
aI1
aI2
aI10
aI32
aa(lp1406
I1405
aI87
aI399
aI0
aI4
aI11
aI1
aI2
aI14
aI20
aa(lp1407
I1406
aI43
aI120
aI16
aI5
aI12
aI0
aI1
aI11
aI5
aa(lp1408
I1407
aI9
aI884
aI13
aI4
aI11
aI1
aI2
aI16
aI18
aa(lp1409
I1408
aI55
aI814
aI16
aI2
aI11
aI1
aI2
aI9
aI3
aa(lp1410
I1409
aI67
aI943
aI16
aI4
aI14
aI2
aI2
aI9
aI3
aa(lp1411
I1410
aI118
aI1158
aI5
aI3
aI8
aI2
aI2
aI9
aI8
aa(lp1412
I1411
aI67
aI339
aI2
aI3
aI18
aI2
aI2
aI9
aI8
aa(lp1413
I1412
aI24
aI638
aI2
aI3
aI1
aI2
aI2
aI9
aI8
aa(lp1414
I1413
aI9
aI144
aI14
aI3
aI11
aI1
aI2
aI9
aI3
aa(lp1415
I1414
aI65
aI129
aI5
aI0
aI0
aI1
aI1
aI2
aI5
aa(lp1416
I1415
aI67
aI752
aI1
aI0
aI0
aI1
aI1
aI2
aI5
aa(lp1417
I1416
aI27
aI1063
aI14
aI5
aI13
aI1
aI2
aI15
aI25
aa(lp1418
I1417
aI64
aI543
aI9
aI5
aI12
aI0
aI1
aI2
aI5
aa(lp1419
I1418
aI19
aI1151
aI11
aI4
aI12
aI1
aI2
aI4
aI1
aa(lp1420
I1419
aI9
aI32
aI14
aI2
aI11
aI1
aI2
aI9
aI3
aa(lp1421
I1420
aI9
aI865
aI13
aI5
aI12
aI0
aI1
aI11
aI5
aa(lp1422
I1421
aI67
aI420
aI4
aI3
aI16
aI2
aI2
aI9
aI8
aa(lp1423
I1422
aI66
aI737
aI8
aI3
aI12
aI1
aI2
aI3
aI39
aa(lp1424
I1423
aI121
aI985
aI6
aI0
aI0
aI0
aI1
aI2
aI5
aa(lp1425
I1424
aI67
aI519
aI1
aI3
aI17
aI2
aI2
aI9
aI8
aa(lp1426
I1425
aI88
aI141
aI17
aI2
aI12
aI0
aI1
aI11
aI5
aa(lp1427
I1426
aI9
aI378
aI13
aI0
aI0
aI0
aI1
aI11
aI5
aa(lp1428
I1427
aI118
aI1158
aI3
aI4
aI16
aI1
aI2
aI16
aI18
aa(lp1429
I1428
aI109
aI288
aI3
aI3
aI18
aI2
aI2
aI9
aI8
aa(lp1430
I1429
aI9
aI286
aI1
aI3
aI13
aI2
aI2
aI9
aI3
aa(lp1431
I1430
aI65
aI823
aI17
aI3
aI12
aI1
aI2
aI9
aI3
aa(lp1432
I1431
aI65
aI199
aI7
aI5
aI16
aI0
aI2
aI6
aI9
aa(lp1433
I1432
aI87
aI956
aI19
aI3
aI19
aI2
aI2
aI9
aI8
aa(lp1434
I1433
aI30
aI1109
aI2
aI3
aI11
aI1
aI2
aI6
aI14
aa(lp1435
I1434
aI9
aI89
aI17
aI4
aI15
aI1
aI2
aI9
aI3
aa(lp1436
I1435
aI65
aI142
aI5
aI3
aI18
aI2
aI2
aI9
aI8
aa(lp1437
I1436
aI80
aI1070
aI9
aI0
aI0
aI0
aI1
aI2
aI5
aa(lp1438
I1437
aI81
aI541
aI16
aI1
aI16
aI1
aI2
aI9
aI3
aa(lp1439
I1438
aI83
aI893
aI4
aI3
aI2
aI2
aI2
aI9
aI8
aa(lp1440
I1439
aI87
aI4
aI1
aI3
aI11
aI1
aI2
aI14
aI20
aa(lp1441
I1440
aI113
aI1140
aI9
aI0
aI0
aI0
aI1
aI2
aI5
aa(lp1442
I1441
aI87
aI4
aI4
aI0
aI0
aI0
aI1
aI2
aI5
aa(lp1443
I1442
aI67
aI844
aI4
aI3
aI11
aI1
aI2
aI9
aI11
aa(lp1444
I1443
aI41
aI784
aI14
aI4
aI13
aI1
aI2
aI16
aI41
aa(lp1445
I1444
aI65
aI823
aI3
aI3
aI16
aI1
aI2
aI15
aI30
aa(lp1446
I1445
aI9
aI363
aI7
aI3
aI12
aI0
aI1
aI2
aI5
aa(lp1447
I1446
aI9
aI865
aI13
aI0
aI0
aI0
aI1
aI11
aI5
aa(lp1448
I1447
aI65
aI402
aI18
aI4
aI11
aI1
aI2
aI4
aI1
aa(lp1449
I1448
aI57
aI391
aI7
aI1
aI11
aI1
aI2
aI16
aI41
aa(lp1450
I1449
aI109
aI728
aI5
aI4
aI18
aI2
aI2
aI9
aI8
aa(lp1451
I1450
aI65
aI750
aI4
aI3
aI18
aI2
aI2
aI9
aI8
aa(lp1452
I1451
aI82
aI503
aI17
aI4
aI14
aI1
aI2
aI14
aI35
aa(lp1453
I1452
aI30
aI758
aI4
aI3
aI18
aI2
aI2
aI9
aI8
aa(lp1454
I1453
aI61
aI379
aI5
aI3
aI8
aI2
aI2
aI9
aI8
aa(lp1455
I1454
aI64
aI947
aI12
aI3
aI11
aI1
aI2
aI3
aI39
aa(lp1456
I1455
aI90
aI1100
aI13
aI2
aI12
aI1
aI1
aI11
aI5
aa(lp1457
I1456
aI59
aI878
aI10
aI4
aI13
aI1
aI2
aI4
aI23
aa(lp1458
I1457
aI67
aI709
aI1
aI4
aI11
aI1
aI2
aI14
aI20
aa(lp1459
I1458
aI67
aI695
aI19
aI4
aI14
aI2
aI2
aI9
aI3
aa(lp1460
I1459
aI107
aI81
aI2
aI3
aI14
aI0
aI2
aI9
aI8
aa(lp1461
I1460
aI9
aI941
aI10
aI4
aI13
aI2
aI2
aI4
aI37
aa(lp1462
I1461
aI9
aI361
aI19
aI3
aI6
aI2
aI2
aI9
aI8
aa(lp1463
I1462
aI85
aI38
aI12
aI4
aI14
aI0
aI2
aI9
aI3
aa(lp1464
I1463
aI9
aI815
aI2
aI5
aI14
aI1
aI2
aI14
aI20
aa(lp1465
I1464
aI87
aI284
aI17
aI5
aI14
aI1
aI2
aI16
aI18
aa(lp1466
I1465
aI67
aI649
aI10
aI5
aI12
aI0
aI1
aI2
aI5
aa(lp1467
I1466
aI121
aI1075
aI4
aI0
aI0
aI0
aI1
aI2
aI5
aa(lp1468
I1467
aI66
aI676
aI0
aI3
aI16
aI2
aI2
aI6
aI9
aa(lp1469
I1468
aI82
aI1062
aI7
aI0
aI0
aI1
aI1
aI2
aI5
aa(lp1470
I1469
aI9
aI485
aI5
aI3
aI10
aI2
aI2
aI9
aI8
aa(lp1471
I1470
aI64
aI262
aI0
aI5
aI14
aI1
aI2
aI15
aI7
aa(lp1472
I1471
aI118
aI437
aI4
aI3
aI17
aI2
aI2
aI9
aI8
aa(lp1473
I1472
aI9
aI1094
aI14
aI5
aI17
aI1
aI2
aI15
aI25
aa(lp1474
I1473
aI33
aI326
aI12
aI5
aI14
aI1
aI2
aI15
aI25
aa(lp1475
I1474
aI67
aI387
aI1
aI3
aI16
aI2
aI2
aI9
aI8
aa(lp1476
I1475
aI47
aI106
aI5
aI3
aI15
aI2
aI2
aI9
aI8
aa(lp1477
I1476
aI85
aI23
aI16
aI0
aI0
aI1
aI1
aI11
aI5
aa(lp1478
I1477
aI81
aI867
aI16
aI3
aI17
aI2
aI2
aI9
aI8
aa(lp1479
I1478
aI27
aI912
aI11
aI5
aI17
aI0
aI2
aI15
aI25
aa(lp1480
I1479
aI96
aI223
aI2
aI4
aI16
aI2
aI2
aI9
aI8
aa(lp1481
I1480
aI55
aI362
aI18
aI3
aI13
aI2
aI2
aI6
aI14
aa(lp1482
I1481
aI9
aI884
aI12
aI3
aI14
aI2
aI2
aI15
aI25
aa(lp1483
I1482
aI79
aI360
aI7
aI0
aI0
aI0
aI1
aI2
aI5
aa(lp1484
I1483
aI33
aI1080
aI19
aI3
aI17
aI2
aI2
aI9
aI8
aa(lp1485
I1484
aI96
aI801
aI6
aI3
aI12
aI0
aI1
aI2
aI5
aa(lp1486
I1485
aI67
aI821
aI2
aI3
aI15
aI2
aI2
aI9
aI8
aa(lp1487
I1486
aI81
aI228
aI14
aI3
aI12
aI1
aI2
aI16
aI18
aa(lp1488
I1487
aI62
aI754
aI12
aI1
aI11
aI1
aI2
aI16
aI18
aa(lp1489
I1488
aI87
aI1106
aI19
aI5
aI12
aI0
aI1
aI11
aI5
aa(lp1490
I1489
aI67
aI833
aI16
aI3
aI20
aI2
aI2
aI9
aI8
aa(lp1491
I1490
aI98
aI747
aI8
aI0
aI0
aI0
aI1
aI2
aI5
aa(lp1492
I1491
aI3
aI1134
aI6
aI3
aI14
aI1
aI2
aI6
aI9
aa(lp1493
I1492
aI30
aI991
aI15
aI2
aI11
aI1
aI2
aI9
aI3
aa(lp1494
I1493
aI67
aI1127
aI4
aI4
aI12
aI0
aI2
aI9
aI3
aa(lp1495
I1494
aI59
aI763
aI7
aI3
aI13
aI1
aI2
aI6
aI9
aa(lp1496
I1495
aI66
aI209
aI15
aI0
aI0
aI1
aI1
aI11
aI5
aa(lp1497
I1496
aI87
aI1095
aI2
aI5
aI12
aI0
aI1
aI2
aI5
aa(lp1498
I1497
aI27
aI167
aI14
aI5
aI12
aI0
aI1
aI11
aI5
aa(lp1499
I1498
aI3
aI366
aI10
aI5
aI12
aI0
aI1
aI2
aI5
aa(lp1500
I1499
aI67
aI1086
aI0
aI0
aI0
aI1
aI1
aI2
aI5
aa(lp1501
I1500
aI87
aI123
aI6
aI0
aI0
aI1
aI1
aI2
aI5
aa(lp1502
I1501
aI67
aI359
aI15
aI5
aI12
aI0
aI1
aI11
aI5
aa(lp1503
I1502
aI81
aI973
aI11
aI3
aI13
aI1
aI2
aI14
aI20
aa(lp1504
I1503
aI90
aI567
aI12
aI1
aI14
aI1
aI2
aI9
aI3
aa(lp1505
I1504
aI38
aI385
aI14
aI4
aI11
aI1
aI2
aI16
aI4
aa(lp1506
I1505
aI87
aI1126
aI16
aI5
aI12
aI0
aI1
aI11
aI5
aa(lp1507
I1506
aI84
aI1045
aI8
aI2
aI12
aI0
aI1
aI2
aI5
aa(lp1508
I1507
aI88
aI61
aI19
aI3
aI14
aI1
aI2
aI14
aI20
aa(lp1509
I1508
aI67
aI904
aI9
aI1
aI12
aI0
aI1
aI2
aI5
aa(lp1510
I1509
aI62
aI1047
aI3
aI3
aI15
aI2
aI2
aI9
aI8
aa(lp1511
I1510
aI67
aI714
aI0
aI3
aI11
aI2
aI2
aI14
aI20
aa(lp1512
I1511
aI87
aI399
aI19
aI4
aI13
aI1
aI2
aI6
aI14
aa(lp1513
I1512
aI81
aI47
aI4
aI3
aI15
aI2
aI2
aI16
aI18
aa(lp1514
I1513
aI70
aI671
aI2
aI4
aI18
aI2
aI2
aI9
aI8
aa(lp1515
I1514
aI88
aI936
aI11
aI3
aI11
aI1
aI2
aI16
aI18
aa(lp1516
I1515
aI65
aI9
aI9
aI0
aI0
aI0
aI1
aI2
aI5
aa(lp1517
I1516
aI88
aI1029
aI15
aI5
aI12
aI0
aI1
aI11
aI5
aa(lp1518
I1517
aI65
aI655
aI5
aI3
aI18
aI2
aI2
aI9
aI8
aa(lp1519
I1518
aI108
aI670
aI8
aI5
aI12
aI0
aI1
aI2
aI5
aa(lp1520
I1519
aI9
aI749
aI3
aI3
aI15
aI2
aI2
aI14
aI20
aa(lp1521
I1520
aI87
aI338
aI18
aI5
aI12
aI0
aI1
aI11
aI5
aa(lp1522
I1521
aI9
aI382
aI19
aI2
aI11
aI1
aI2
aI9
aI3
aa(lp1523
I1522
aI65
aI402
aI6
aI0
aI0
aI0
aI1
aI2
aI5
aa(lp1524
I1523
aI86
aI918
aI13
aI1
aI11
aI1
aI2
aI6
aI9
aa(lp1525
I1524
aI66
aI37
aI2
aI3
aI1
aI2
aI2
aI9
aI8
aa(lp1526
I1525
aI41
aI636
aI1
aI4
aI16
aI1
aI2
aI16
aI4
aa(lp1527
I1526
aI87
aI176
aI12
aI5
aI11
aI1
aI2
aI6
aI9
aa(lp1528
I1527
aI30
aI1057
aI3
aI4
aI16
aI2
aI2
aI9
aI8
aa(lp1529
I1528
aI9
aI485
aI16
aI3
aI12
aI0
aI1
aI2
aI5
aa(lp1530
I1529
aI107
aI50
aI11
aI3
aI14
aI1
aI2
aI15
aI25
aa(lp1531
I1530
aI93
aI83
aI2
aI4
aI18
aI2
aI2
aI9
aI8
aa(lp1532
I1531
aI67
aI134
aI4
aI3
aI14
aI1
aI2
aI6
aI9
aa(lp1533
I1532
aI30
aI813
aI16
aI4
aI11
aI0
aI2
aI6
aI9
aa(lp1534
I1533
aI65
aI319
aI9
aI3
aI1
aI2
aI2
aI9
aI3
aa(lp1535
I1534
aI88
aI61
aI12
aI3
aI12
aI0
aI1
aI11
aI5
aa(lp1536
I1535
aI88
aI585
aI8
aI0
aI0
aI0
aI1
aI2
aI5
aa(lp1537
I1536
aI117
aI721
aI12
aI5
aI12
aI0
aI1
aI11
aI5
aa(lp1538
I1537
aI34
aI1025
aI4
aI3
aI17
aI2
aI2
aI9
aI8
aa(lp1539
I1538
aI86
aI1016
aI6
aI3
aI12
aI0
aI1
aI2
aI5
aa(lp1540
I1539
aI59
aI245
aI10
aI5
aI18
aI2
aI2
aI10
aI40
aa(lp1541
I1540
aI73
aI1153
aI0
aI4
aI8
aI2
aI2
aI9
aI8
aa(lp1542
I1541
aI94
aI718
aI5
aI4
aI16
aI2
aI2
aI9
aI8
aa(lp1543
I1542
aI33
aI471
aI18
aI3
aI13
aI2
aI2
aI9
aI8
aa(lp1544
I1543
aI94
aI1138
aI9
aI0
aI0
aI1
aI1
aI2
aI5
aa(lp1545
I1544
aI65
aI273
aI9
aI4
aI12
aI0
aI1
aI2
aI5
aa(lp1546
I1545
aI66
aI416
aI4
aI5
aI12
aI0
aI1
aI2
aI5
aa(lp1547
I1546
aI65
aI331
aI9
aI5
aI14
aI1
aI2
aI16
aI18
aa(lp1548
I1547
aI87
aI434
aI10
aI4
aI13
aI0
aI2
aI4
aI1
aa(lp1549
I1548
aI79
aI143
aI11
aI2
aI12
aI1
aI2
aI9
aI3
aa(lp1550
I1549
aI9
aI901
aI1
aI3
aI11
aI1
aI2
aI14
aI20
aa(lp1551
I1550
aI67
aI950
aI16
aI4
aI11
aI1
aI2
aI14
aI20
aa(lp1552
I1551
aI67
aI709
aI18
aI3
aI13
aI2
aI2
aI9
aI3
aa(lp1553
I1552
aI121
aI876
aI19
aI4
aI16
aI2
aI2
aI9
aI8
aa(lp1554
I1553
aI41
aI793
aI2
aI3
aI19
aI2
aI2
aI9
aI8
aa(lp1555
I1554
aI9
aI250
aI11
aI3
aI11
aI1
aI2
aI16
aI4
aa(lp1556
I1555
aI87
aI210
aI3
aI3
aI16
aI2
aI2
aI6
aI9
aa(lp1557
I1556
aI45
aI307
aI11
aI4
aI11
aI1
aI2
aI9
aI3
aa(lp1558
I1557
aI89
aI92
aI2
aI3
aI9
aI2
aI2
aI9
aI8
aa(lp1559
I1558
aI9
aI1093
aI17
aI3
aI14
aI1
aI2
aI15
aI25
aa(lp1560
I1559
aI66
aI435
aI7
aI4
aI16
aI2
aI2
aI16
aI18
aa(lp1561
I1560
aI78
aI169
aI5
aI3
aI5
aI2
aI2
aI9
aI8
aa(lp1562
I1561
aI67
aI924
aI3
aI4
aI11
aI1
aI2
aI9
aI3
aa(lp1563
I1562
aI82
aI613
aI19
aI3
aI11
aI1
aI2
aI14
aI35
aa(lp1564
I1563
aI82
aI1049
aI9
aI3
aI11
aI1
aI2
aI14
aI20
aa(lp1565
I1564
aI59
aI279
aI2
aI3
aI20
aI2
aI2
aI9
aI8
aa(lp1566
I1565
aI9
aI865
aI3
aI3
aI11
aI1
aI2
aI14
aI20
aa(lp1567
I1566
aI65
aI866
aI17
aI0
aI0
aI1
aI1
aI11
aI5
aa(lp1568
I1567
aI67
aI642
aI6
aI5
aI11
aI1
aI2
aI9
aI8
aa(lp1569
I1568
aI66
aI831
aI3
aI3
aI2
aI2
aI2
aI9
aI8
aa(lp1570
I1569
aI107
aI999
aI11
aI3
aI14
aI1
aI2
aI14
aI20
aa(lp1571
I1570
aI9
aI286
aI15
aI5
aI12
aI0
aI1
aI11
aI5
aa(lp1572
I1571
aI88
aI7
aI11
aI4
aI12
aI1
aI2
aI15
aI25
aa(lp1573
I1572
aI66
aI1024
aI0
aI3
aI14
aI0
aI2
aI6
aI0
aa(lp1574
I1573
aI27
aI1063
aI15
aI5
aI12
aI0
aI1
aI11
aI5
aa(lp1575
I1574
aI117
aI896
aI3
aI3
aI15
aI2
aI2
aI9
aI8
aa(lp1576
I1575
aI0
aI409
aI7
aI0
aI0
aI0
aI1
aI2
aI5
aa(lp1577
I1576
aI90
aI698
aI16
aI3
aI15
aI2
aI2
aI9
aI8
aa(lp1578
I1577
aI79
aI920
aI17
aI5
aI13
aI2
aI2
aI9
aI8
aa(lp1579
I1578
aI19
aI1151
aI11
aI1
aI12
aI1
aI2
aI4
aI1
aa(lp1580
I1579
aI87
aI399
aI10
aI3
aI14
aI1
aI2
aI4
aI1
aa(lp1581
I1580
aI82
aI389
aI10
aI3
aI12
aI0
aI1
aI2
aI5
aa(lp1582
I1581
aI62
aI803
aI19
aI3
aI15
aI2
aI2
aI15
aI30
aa(lp1583
I1582
aI82
aI306
aI0
aI3
aI18
aI2
aI2
aI9
aI8
aa(lp1584
I1583
aI67
aI630
aI18
aI3
aI1
aI2
aI2
aI9
aI8
aa(lp1585
I1584
aI67
aI359
aI9
aI0
aI0
aI1
aI1
aI2
aI5
aa(lp1586
I1585
aI65
aI388
aI3
aI4
aI11
aI1
aI2
aI16
aI4
aa(lp1587
I1586
aI74
aI54
aI7
aI3
aI15
aI2
aI2
aI9
aI8
aa(lp1588
I1587
aI29
aI1133
aI7
aI3
aI11
aI1
aI2
aI6
aI0
aa(lp1589
I1588
aI90
aI292
aI19
aI3
aI15
aI2
aI2
aI9
aI8
aa(lp1590
I1589
aI67
aI1003
aI17
aI5
aI13
aI1
aI2
aI15
aI25
aa(lp1591
I1590
aI9
aI1046
aI19
aI4
aI14
aI2
aI2
aI14
aI20
aa(lp1592
I1591
aI3
aI151
aI14
aI3
aI14
aI1
aI2
aI9
aI3
aa(lp1593
I1592
aI19
aI799
aI2
aI3
aI18
aI2
aI2
aI9
aI8
aa(lp1594
I1593
aI72
aI241
aI2
aI4
aI18
aI2
aI2
aI9
aI8
aa(lp1595
I1594
aI67
aI1032
aI2
aI4
aI13
aI0
aI2
aI9
aI8
aa(lp1596
I1595
aI121
aI226
aI8
aI4
aI14
aI1
aI2
aI4
aI1
aa(lp1597
I1596
aI87
aI583
aI11
aI3
aI14
aI1
aI2
aI16
aI4
aa(lp1598
I1597
aI30
aI195
aI15
aI1
aI11
aI1
aI2
aI9
aI3
aa(lp1599
I1598
aI51
aI879
aI12
aI3
aI12
aI0
aI1
aI11
aI5
aa(lp1600
I1599
aI67
aI554
aI4
aI3
aI11
aI1
aI2
aI16
aI18
aa(lp1601
I1600
aI81
aI552
aI7
aI1
aI14
aI1
aI2
aI9
aI3
aa(lp1602
I1601
aI9
aI40
aI5
aI3
aI11
aI2
aI2
aI14
aI20
aa(lp1603
I1602
aI38
aI452
aI3
aI3
aI15
aI2
aI2
aI9
aI8
aa(lp1604
I1603
aI87
aI1126
aI19
aI3
aI13
aI1
aI2
aI16
aI18
aa(lp1605
I1604
aI66
aI905
aI6
aI3
aI11
aI2
aI2
aI14
aI35
aa(lp1606
I1605
aI59
aI133
aI9
aI4
aI12
aI0
aI1
aI2
aI5
aa(lp1607
I1606
aI81
aI552
aI7
aI4
aI13
aI1
aI2
aI4
aI1
aa(lp1608
I1607
aI37
aI238
aI4
aI3
aI11
aI0
aI2
aI9
aI8
aa(lp1609
I1608
aI95
aI509
aI12
aI4
aI11
aI1
aI2
aI14
aI20
aa(lp1610
I1609
aI9
aI124
aI2
aI3
aI13
aI2
aI2
aI14
aI20
aa(lp1611
I1610
aI9
aI378
aI14
aI3
aI14
aI1
aI2
aI6
aI0
aa(lp1612
I1611
aI79
aI475
aI8
aI0
aI0
aI0
aI1
aI2
aI5
aa(lp1613
I1612
aI66
aI606
aI15
aI0
aI0
aI1
aI1
aI11
aI5
aa(lp1614
I1613
aI67
aI341
aI12
aI0
aI0
aI0
aI1
aI11
aI5
aa(lp1615
I1614
aI57
aI771
aI9
aI5
aI12
aI1
aI1
aI2
aI5
aa(lp1616
I1615
aI67
aI900
aI11
aI5
aI12
aI0
aI1
aI11
aI5
aa(lp1617
I1616
aI67
aI833
aI9
aI0
aI0
aI0
aI1
aI2
aI5
aa(lp1618
I1617
aI81
aI746
aI13
aI5
aI12
aI0
aI1
aI11
aI5
aa(lp1619
I1618
aI30
aI12
aI5
aI4
aI19
aI2
aI2
aI9
aI8
aa(lp1620
I1619
aI67
aI501
aI17
aI3
aI16
aI1
aI2
aI15
aI25
aa(lp1621
I1620
aI33
aI1107
aI13
aI1
aI12
aI1
aI2
aI9
aI3
aa(lp1622
I1621
aI81
aI710
aI11
aI3
aI13
aI1
aI2
aI15
aI30
aa(lp1623
I1622
aI67
aI882
aI14
aI0
aI0
aI0
aI1
aI11
aI5
aa(lp1624
I1623
aI38
aI121
aI3
aI3
aI10
aI2
aI2
aI9
aI8
aa(lp1625
I1624
aI9
aI621
aI2
aI3
aI10
aI2
aI2
aI9
aI8
aa(lp1626
I1625
aI117
aI1060
aI0
aI0
aI0
aI1
aI1
aI2
aI5
aa(lp1627
I1626
aI9
aI280
aI14
aI3
aI14
aI1
aI2
aI3
aI6
aa(lp1628
I1627
aI87
aI972
aI19
aI3
aI17
aI2
aI2
aI9
aI8
aa(lp1629
I1628
aI9
aI1094
aI18
aI4
aI13
aI2
aI2
aI4
aI37
aa(lp1630
I1629
aI82
aI1147
aI10
aI3
aI14
aI0
aI1
aI2
aI5
aa(lp1631
I1630
aI87
aI953
aI14
aI3
aI11
aI1
aI2
aI16
aI18
aa(lp1632
I1631
aI81
aI335
aI15
aI4
aI18
aI1
aI2
aI14
aI20
aa(lp1633
I1632
aI66
aI510
aI15
aI0
aI0
aI1
aI1
aI11
aI5
aa(lp1634
I1633
aI62
aI178
aI17
aI3
aI15
aI1
aI2
aI8
aI15
aa(lp1635
I1634
aI82
aI1026
aI19
aI3
aI12
aI0
aI1
aI2
aI5
aa(lp1636
I1635
aI24
aI785
aI3
aI3
aI14
aI2
aI2
aI15
aI30
aa(lp1637
I1636
aI65
aI137
aI17
aI3
aI14
aI1
aI2
aI9
aI3
aa(lp1638
I1637
aI67
aI882
aI14
aI1
aI13
aI1
aI2
aI9
aI3
aa(lp1639
I1638
aI67
aI694
aI1
aI3
aI14
aI1
aI2
aI6
aI0
aa(lp1640
I1639
aI67
aI1054
aI10
aI4
aI13
aI2
aI2
aI3
aI16
aa(lp1641
I1640
aI67
aI1061
aI19
aI4
aI11
aI1
aI2
aI14
aI20
aa(lp1642
I1641
aI9
aI280
aI5
aI3
aI11
aI1
aI2
aI16
aI41
aa(lp1643
I1642
aI81
aI552
aI16
aI3
aI15
aI1
aI2
aI6
aI14
aa(lp1644
I1643
aI57
aI162
aI16
aI3
aI13
aI2
aI2
aI9
aI8
aa(lp1645
I1644
aI81
aI11
aI2
aI3
aI17
aI2
aI2
aI6
aI9
aa(lp1646
I1645
aI87
aI161
aI14
aI3
aI14
aI1
aI2
aI15
aI25
aa(lp1647
I1646
aI111
aI1089
aI4
aI4
aI17
aI2
aI2
aI9
aI8
aa(lp1648
I1647
aI67
aI457
aI3
aI3
aI3
aI2
aI2
aI9
aI8
aa(lp1649
I1648
aI59
aI1051
aI4
aI0
aI0
aI1
aI1
aI2
aI5
aa(lp1650
I1649
aI10
aI483
aI2
aI4
aI16
aI2
aI2
aI9
aI8
aa(lp1651
I1650
aI62
aI748
aI11
aI4
aI11
aI1
aI2
aI15
aI7
aa(lp1652
I1651
aI81
aI47
aI1
aI4
aI16
aI2
aI2
aI9
aI8
aa(lp1653
I1652
aI81
aI448
aI19
aI3
aI11
aI1
aI2
aI6
aI9
aa(lp1654
I1653
aI82
aI1142
aI6
aI0
aI0
aI1
aI1
aI2
aI5
aa(lp1655
I1654
aI81
aI552
aI10
aI1
aI14
aI1
aI2
aI4
aI1
aa(lp1656
I1655
aI81
aI552
aI5
aI4
aI14
aI1
aI2
aI9
aI3
aa(lp1657
I1656
aI9
aI521
aI18
aI3
aI11
aI1
aI2
aI16
aI18
aa(lp1658
I1657
aI55
aI254
aI18
aI0
aI0
aI1
aI1
aI2
aI5
aa(lp1659
I1658
aI65
aI713
aI16
aI5
aI1
aI2
aI2
aI15
aI30
aa(lp1660
I1659
aI89
aI302
aI0
aI4
aI16
aI0
aI2
aI9
aI3
aa(lp1661
I1660
aI96
aI351
aI7
aI1
aI15
aI2
aI2
aI9
aI8
aa(lp1662
I1661
aI103
aI189
aI9
aI0
aI0
aI1
aI1
aI2
aI5
aa(lp1663
I1662
aI81
aI242
aI3
aI4
aI17
aI2
aI2
aI9
aI8
aa(lp1664
I1663
aI41
aI636
aI6
aI3
aI12
aI0
aI1
aI2
aI5
aa(lp1665
I1664
aI81
aI883
aI6
aI3
aI15
aI2
aI2
aI16
aI18
aa(lp1666
I1665
aI87
aI126
aI15
aI0
aI0
aI1
aI1
aI2
aI5
aa(lp1667
I1666
aI18
aI152
aI8
aI0
aI0
aI0
aI1
aI2
aI5
aa(lp1668
I1667
aI81
aI552
aI16
aI3
aI4
aI2
aI2
aI15
aI30
aa(lp1669
I1668
aI67
aI937
aI15
aI5
aI15
aI1
aI2
aI15
aI30
aa(lp1670
I1669
aI82
aI412
aI7
aI0
aI0
aI1
aI1
aI2
aI5
aa(lp1671
I1670
aI87
aI680
aI10
aI5
aI1
aI2
aI2
aI10
aI40
aa(lp1672
I1671
aI121
aI651
aI18
aI4
aI12
aI1
aI2
aI16
aI18
aa(lp1673
I1672
aI66
aI831
aI7
aI3
aI18
aI2
aI2
aI16
aI18
aa(lp1674
I1673
aI67
aI616
aI9
aI0
aI0
aI0
aI1
aI2
aI5
aa(lp1675
I1674
aI88
aI585
aI12
aI3
aI11
aI1
aI2
aI16
aI18
aa(lp1676
I1675
aI9
aI850
aI2
aI3
aI11
aI1
aI2
aI15
aI7
aa(lp1677
I1676
aI9
aI286
aI15
aI5
aI12
aI0
aI1
aI11
aI5
aa(lp1678
I1677
aI85
aI23
aI10
aI5
aI17
aI2
aI2
aI10
aI40
aa(lp1679
I1678
aI87
aI1155
aI4
aI1
aI11
aI1
aI2
aI9
aI3
aa(lp1680
I1679
aI3
aI345
aI16
aI1
aI14
aI1
aI2
aI9
aI3
aa(lp1681
I1680
aI66
aI1018
aI15
aI0
aI0
aI1
aI1
aI11
aI5
aa(lp1682
I1681
aI82
aI48
aI15
aI3
aI11
aI1
aI2
aI15
aI25
aa(lp1683
I1682
aI85
aI682
aI16
aI3
aI18
aI2
aI2
aI9
aI8
aa(lp1684
I1683
aI67
aI626
aI6
aI4
aI14
aI0
aI2
aI9
aI3
aa(lp1685
I1684
aI65
aI610
aI18
aI3
aI14
aI0
aI2
aI6
aI9
aa(lp1686
I1685
aI65
aI331
aI12
aI1
aI12
aI1
aI2
aI9
aI3
aa(lp1687
I1686
aI81
aI251
aI13
aI3
aI12
aI0
aI1
aI11
aI5
aa(lp1688
I1687
aI87
aI623
aI9
aI0
aI0
aI0
aI1
aI2
aI5
aa(lp1689
I1688
aI107
aI999
aI13
aI3
aI11
aI1
aI2
aI9
aI3
aa(lp1690
I1689
aI81
aI807
aI3
aI4
aI20
aI2
aI2
aI9
aI8
aa(lp1691
I1690
aI121
aI122
aI16
aI3
aI20
aI2
aI2
aI9
aI8
aa(lp1692
I1691
aI33
aI955
aI13
aI4
aI11
aI1
aI2
aI15
aI30
aa(lp1693
I1692
aI57
aI184
aI10
aI0
aI0
aI0
aI1
aI2
aI5
aa(lp1694
I1693
aI82
aI663
aI17
aI4
aI14
aI1
aI2
aI14
aI20
aa(lp1695
I1694
aI9
aI740
aI12
aI4
aI12
aI1
aI2
aI15
aI30
aa(lp1696
I1695
aI67
aI554
aI15
aI1
aI12
aI0
aI1
aI11
aI5
aa(lp1697
I1696
aI81
aI867
aI12
aI5
aI12
aI0
aI1
aI11
aI5
aa(lp1698
I1697
aI67
aI921
aI14
aI3
aI13
aI1
aI2
aI15
aI25
aa(lp1699
I1698
aI66
aI209
aI11
aI1
aI12
aI1
aI2
aI9
aI3
aa(lp1700
I1699
aI67
aI647
aI18
aI1
aI14
aI2
aI2
aI9
aI3
aa(lp1701
I1700
aI66
aI435
aI12
aI4
aI11
aI1
aI2
aI16
aI4
aa(lp1702
I1701
aI30
aI79
aI18
aI3
aI16
aI1
aI2
aI9
aI3
aa(lp1703
I1702
aI88
aI794
aI13
aI5
aI12
aI0
aI1
aI11
aI5
aa(lp1704
I1703
aI87
aI971
aI4
aI1
aI14
aI1
aI2
aI16
aI18
aa(lp1705
I1704
aI67
aI809
aI19
aI1
aI16
aI1
aI2
aI9
aI8
aa(lp1706
I1705
aI67
aI545
aI15
aI5
aI14
aI1
aI2
aI15
aI25
aa(lp1707
I1706
aI65
aI328
aI12
aI0
aI0
aI1
aI1
aI11
aI5
aa(lp1708
I1707
aI9
aI485
aI11
aI3
aI14
aI1
aI2
aI16
aI4
aa(lp1709
I1708
aI88
aI14
aI12
aI3
aI12
aI0
aI1
aI11
aI5
aa(lp1710
I1709
aI67
aI1033
aI15
aI5
aI12
aI0
aI1
aI11
aI5
aa(lp1711
I1710
aI66
aI510
aI6
aI5
aI12
aI0
aI1
aI2
aI5
aa(lp1712
I1711
aI9
aI378
aI12
aI3
aI12
aI0
aI1
aI11
aI5
aa(lp1713
I1712
aI30
aI594
aI16
aI4
aI16
aI2
aI2
aI9
aI8
aa(lp1714
I1713
aI9
aI110
aI1
aI3
aI11
aI1
aI2
aI6
aI9
aa(lp1715
I1714
aI30
aI1068
aI12
aI2
aI14
aI1
aI2
aI9
aI3
aa(lp1716
I1715
aI30
aI733
aI10
aI4
aI11
aI0
aI2
aI10
aI27
aa(lp1717
I1716
aI9
aI378
aI16
aI3
aI13
aI1
aI2
aI16
aI4
aa(lp1718
I1717
aI62
aI347
aI8
aI0
aI0
aI0
aI1
aI2
aI5
aa(lp1719
I1718
aI87
aI680
aI1
aI3
aI14
aI0
aI2
aI16
aI19
aa(lp1720
I1719
aI9
aI386
aI12
aI3
aI14
aI1
aI2
aI9
aI3
aa(lp1721
I1720
aI81
aI155
aI1
aI4
aI2
aI0
aI2
aI4
aI22
aa(lp1722
I1721
aI3
aI508
aI13
aI3
aI11
aI1
aI2
aI4
aI1
aa(lp1723
I1722
aI77
aI1042
aI6
aI0
aI0
aI1
aI1
aI2
aI5
aa(lp1724
I1723
aI81
aI295
aI19
aI3
aI15
aI2
aI2
aI9
aI8
aa(lp1725
I1724
aI82
aI933
aI11
aI4
aI11
aI1
aI2
aI16
aI4
aa(lp1726
I1725
aI118
aI201
aI13
aI5
aI14
aI1
aI2
aI15
aI30
aa(lp1727
I1726
aI65
aI588
aI8
aI0
aI0
aI0
aI1
aI2
aI5
aa(lp1728
I1727
aI65
aI826
aI3
aI3
aI15
aI1
aI2
aI9
aI3
aa(lp1729
I1728
aI87
aI680
aI15
aI0
aI0
aI0
aI1
aI11
aI5
aa(lp1730
I1729
aI59
aI1132
aI19
aI5
aI13
aI1
aI2
aI15
aI25
aa(lp1731
I1730
aI66
aI1030
aI8
aI4
aI16
aI2
aI2
aI3
aI16
aa(lp1732
I1731
aI65
aI381
aI15
aI3
aI11
aI1
aI2
aI9
aI3
aa(lp1733
I1732
aI87
aI17
aI3
aI3
aI16
aI1
aI2
aI6
aI14
aa(lp1734
I1733
aI3
aI741
aI12
aI3
aI11
aI1
aI2
aI14
aI26
aa(lp1735
I1734
aI67
aI329
aI12
aI5
aI12
aI0
aI1
aI11
aI5
aa(lp1736
I1735
aI65
aI1066
aI5
aI5
aI17
aI2
aI2
aI9
aI8
aa(lp1737
I1736
aI68
aI555
aI2
aI5
aI16
aI2
aI2
aI9
aI8
aa(lp1738
I1737
aI67
aI417
aI3
aI3
aI11
aI1
aI2
aI16
aI18
aa(lp1739
I1738
aI121
aI802
aI13
aI0
aI0
aI1
aI1
aI11
aI5
aa(lp1740
I1739
aI67
aI609
aI1
aI4
aI14
aI1
aI2
aI16
aI18
aa(lp1741
I1740
aI30
aI1109
aI13
aI0
aI0
aI0
aI1
aI11
aI5
aa(lp1742
I1741
aI64
aI87
aI8
aI0
aI0
aI1
aI1
aI2
aI5
aa(lp1743
I1742
aI67
aI662
aI19
aI4
aI12
aI1
aI2
aI16
aI4
aa(lp1744
I1743
aI3
aI300
aI6
aI5
aI12
aI0
aI1
aI2
aI5
aa(lp1745
I1744
aI85
aI24
aI5
aI5
aI19
aI2
aI2
aI9
aI8
aa(lp1746
I1745
aI9
aI287
aI2
aI3
aI10
aI2
aI2
aI9
aI8
aa(lp1747
I1746
aI67
aI640
aI17
aI4
aI12
aI0
aI2
aI9
aI3
aa(lp1748
I1747
aI33
aI59
aI8
aI4
aI11
aI1
aI2
aI3
aI13
aa(lp1749
I1748
aI100
aI986
aI2
aI3
aI17
aI2
aI2
aI9
aI8
aa(lp1750
I1749
aI67
aI544
aI0
aI3
aI12
aI1
aI2
aI6
aI9
aa(lp1751
I1750
aI59
aI410
aI3
aI3
aI18
aI2
aI2
aI9
aI8
aa(lp1752
I1751
aI66
aI726
aI9
aI5
aI12
aI0
aI1
aI2
aI5
aa(lp1753
I1752
aI32
aI856
aI8
aI0
aI0
aI0
aI1
aI2
aI5
aa(lp1754
I1753
aI81
aI36
aI13
aI3
aI12
aI1
aI1
aI11
aI5
aa(lp1755
I1754
aI81
aI448
aI3
aI3
aI11
aI1
aI2
aI14
aI20
aa(lp1756
I1755
aI82
aI946
aI15
aI3
aI14
aI1
aI2
aI15
aI25
aa(lp1757
I1756
aI65
aI135
aI7
aI3
aI15
aI2
aI2
aI4
aI23
aa(lp1758
I1757
aI109
aI582
aI10
aI5
aI15
aI1
aI4
aI0
aI5
aa(lp1759
I1758
aI85
aI682
aI3
aI3
aI15
aI2
aI2
aI9
aI8
aa(lp1760
I1759
aI87
aI311
aI14
aI0
aI0
aI1
aI1
aI2
aI5
aa(lp1761
I1760
aI110
aI444
aI18
aI3
aI18
aI2
aI2
aI15
aI30
aa(lp1762
I1761
aI87
aI399
aI10
aI4
aI16
aI2
aI2
aI3
aI16
aa(lp1763
I1762
aI65
aI331
aI15
aI2
aI11
aI1
aI2
aI9
aI3
aa(lp1764
I1763
aI65
aI160
aI3
aI3
aI1
aI2
aI2
aI9
aI8
aa(lp1765
I1764
aI65
aI113
aI15
aI3
aI12
aI1
aI1
aI11
aI5
aa(lp1766
I1765
aI59
aI245
aI19
aI3
aI11
aI1
aI2
aI6
aI0
aa(lp1767
I1766
aI67
aI148
aI14
aI5
aI12
aI0
aI1
aI11
aI5
aa(lp1768
I1767
aI79
aI909
aI8
aI0
aI0
aI0
aI1
aI2
aI5
aa(lp1769
I1768
aI81
aI29
aI13
aI4
aI12
aI1
aI1
aI11
aI5
aa(lp1770
I1769
aI88
aI936
aI11
aI5
aI11
aI1
aI2
aI15
aI25
aa(lp1771
I1770
aI80
aI101
aI8
aI0
aI0
aI0
aI1
aI2
aI5
aa(lp1772
I1771
aI117
aI180
aI12
aI1
aI11
aI1
aI2
aI9
aI3
aa(lp1773
I1772
aI66
aI324
aI7
aI2
aI11
aI1
aI2
aI16
aI18
aa(lp1774
I1773
aI81
aI392
aI8
aI2
aI12
aI0
aI1
aI2
aI5
aa(lp1775
I1774
aI81
aI808
aI15
aI5
aI12
aI1
aI1
aI11
aI5
aa(lp1776
I1775
aI9
aI895
aI3
aI3
aI9
aI2
aI2
aI9
aI8
aa(lp1777
I1776
aI67
aI157
aI0
aI3
aI18
aI2
aI2
aI9
aI8
aa(lp1778
I1777
aI9
aI629
aI1
aI1
aI11
aI1
aI2
aI9
aI3
aa(lp1779
I1778
aI32
aI600
aI6
aI0
aI0
aI1
aI1
aI2
aI5
aa(lp1780
I1779
aI65
aI86
aI1
aI3
aI8
aI2
aI2
aI9
aI8
aa(lp1781
I1780
aI29
aI553
aI6
aI5
aI12
aI0
aI1
aI2
aI5
aa(lp1782
I1781
aI30
aI862
aI2
aI4
aI14
aI0
aI2
aI9
aI3
aa(lp1783
I1782
aI81
aI867
aI13
aI0
aI0
aI0
aI1
aI11
aI5
aa(lp1784
I1783
aI33
aI707
aI9
aI0
aI0
aI0
aI1
aI2
aI5
aa(lp1785
I1784
aI81
aI36
aI19
aI4
aI8
aI2
aI2
aI9
aI8
aa(lp1786
I1785
aI81
aI11
aI12
aI2
aI12
aI1
aI1
aI11
aI5
aa(lp1787
I1786
aI27
aI219
aI11
aI5
aI11
aI1
aI2
aI15
aI25
aa(lp1788
I1787
aI9
aI386
aI13
aI5
aI11
aI1
aI2
aI15
aI25
aa(lp1789
I1788
aI27
aI1040
aI12
aI5
aI11
aI1
aI2
aI8
aI10
aa(lp1790
I1789
aI66
aI606
aI15
aI4
aI11
aI1
aI2
aI9
aI3
aa(lp1791
I1790
aI65
aI77
aI18
aI3
aI1
aI2
aI2
aI9
aI8
aa(lp1792
I1791
aI64
aI13
aI3
aI3
aI18
aI2
aI2
aI9
aI8
aa(lp1793
I1792
aI59
aI1051
aI6
aI3
aI14
aI2
aI2
aI14
aI35
aa(lp1794
I1793
aI67
aI554
aI2
aI0
aI0
aI1
aI1
aI2
aI5
aa(lp1795
I1794
aI80
aI1008
aI8
aI0
aI0
aI0
aI1
aI2
aI5
aa(lp1796
I1795
aI30
aI424
aI1
aI4
aI16
aI1
aI2
aI9
aI3
aa(lp1797
I1796
aI87
aI680
aI18
aI3
aI15
aI1
aI2
aI3
aI13
aa(lp1798
I1797
aI67
aI1033
aI13
aI4
aI11
aI0
aI2
aI6
aI0
aa(lp1799
I1798
aI32
aI5
aI1
aI3
aI12
aI1
aI2
aI9
aI3
aa(lp1800
I1799
aI88
aI1002
aI11
aI5
aI11
aI1
aI2
aI14
aI20
aa(lp1801
I1800
aI56
aI514
aI7
aI1
aI16
aI2
aI2
aI9
aI8
aa(lp1802
I1801
aI87
aI399
aI10
aI4
aI15
aI2
aI2
aI3
aI16
aa(lp1803
I1802
aI73
aI1011
aI9
aI2
aI12
aI0
aI1
aI2
aI5
aa(lp1804
I1803
aI37
aI1090
aI15
aI3
aI14
aI1
aI2
aI14
aI20
aa(lp1805
I1804
aI82
aI654
aI4
aI3
aI20
aI2
aI2
aI9
aI8
aa(lp1806
I1805
aI93
aI83
aI3
aI4
aI18
aI2
aI2
aI9
aI8
aa(lp1807
I1806
aI65
aI51
aI14
aI5
aI12
aI1
aI1
aI11
aI5
aa(lp1808
I1807
aI118
aI735
aI4
aI3
aI3
aI2
aI2
aI9
aI8
aa(lp1809
I1808
aI45
aI307
aI13
aI3
aI12
aI1
aI2
aI16
aI4
aa(lp1810
I1809
aI65
aI1043
aI0
aI4
aI19
aI2
aI2
aI9
aI8
aa(lp1811
I1810
aI121
aI425
aI19
aI3
aI11
aI1
aI2
aI14
aI35
aa(lp1812
I1811
aI81
aI911
aI12
aI5
aI12
aI1
aI1
aI11
aI5
aa(lp1813
I1812
aI80
aI2
aI5
aI3
aI16
aI2
aI2
aI9
aI8
aa(lp1814
I1813
aI87
aI231
aI12
aI3
aI11
aI1
aI2
aI15
aI25
aa(lp1815
I1814
aI87
aI575
aI16
aI2
aI11
aI1
aI2
aI9
aI3
aa(lp1816
I1815
aI67
aI643
aI12
aI5
aI12
aI0
aI1
aI11
aI5
aa(lp1817
I1816
aI81
aI883
aI7
aI1
aI11
aI1
aI2
aI15
aI7
aa(lp1818
I1817
aI81
aI335
aI1
aI4
aI1
aI2
aI2
aI9
aI8
aa(lp1819
I1818
aI27
aI634
aI13
aI5
aI11
aI1
aI2
aI14
aI26
aa(lp1820
I1819
aI117
aI177
aI3
aI4
aI14
aI0
aI2
aI9
aI3
aa(lp1821
I1820
aI59
aI299
aI2
aI3
aI20
aI2
aI2
aI9
aI8
aa(lp1822
I1821
aI117
aI177
aI8
aI3
aI12
aI0
aI1
aI2
aI5
aa(lp1823
I1822
aI81
aI853
aI16
aI1
aI11
aI1
aI2
aI9
aI3
aa(lp1824
I1823
aI81
aI36
aI10
aI5
aI20
aI2
aI2
aI10
aI40
aa(lp1825
I1824
aI66
aI416
aI6
aI3
aI11
aI2
aI2
aI14
aI35
aa(lp1826
I1825
aI80
aI1073
aI13
aI2
aI12
aI1
aI2
aI9
aI3
aa(lp1827
I1826
aI62
aI532
aI8
aI0
aI0
aI0
aI1
aI2
aI5
aa(lp1828
I1827
aI67
aI153
aI7
aI3
aI11
aI1
aI2
aI16
aI4
aa(lp1829
I1828
aI81
aI392
aI14
aI3
aI13
aI1
aI2
aI15
aI25
aa(lp1830
I1829
aI81
aI459
aI0
aI4
aI5
aI2
aI2
aI9
aI8
aa(lp1831
I1830
aI115
aI20
aI4
aI4
aI16
aI2
aI2
aI9
aI8
aa(lp1832
I1831
aI30
aI105
aI12
aI2
aI15
aI1
aI2
aI9
aI3
aa(lp1833
I1832
aI27
aI219
aI6
aI0
aI0
aI1
aI1
aI2
aI5
aa(lp1834
I1833
aI57
aI271
aI6
aI5
aI12
aI1
aI1
aI2
aI5
aa(lp1835
I1834
aI43
aI949
aI17
aI5
aI12
aI0
aI1
aI11
aI5
aa(lp1836
I1835
aI67
aI642
aI7
aI3
aI11
aI1
aI2
aI15
aI7
aa(lp1837
I1836
aI113
aI384
aI6
aI0
aI0
aI0
aI1
aI2
aI5
aa(lp1838
I1837
aI65
aI1101
aI2
aI3
aI15
aI2
aI2
aI9
aI8
aa(lp1839
I1838
aI87
aI500
aI7
aI0
aI0
aI1
aI1
aI2
aI5
aa(lp1840
I1839
aI66
aI892
aI6
aI3
aI12
aI0
aI1
aI2
aI5
aa(lp1841
I1840
aI65
aI580
aI6
aI3
aI13
aI2
aI2
aI16
aI18
aa(lp1842
I1841
aI67
aI91
aI18
aI4
aI11
aI2
aI2
aI9
aI3
aa(lp1843
I1842
aI9
aI1094
aI15
aI3
aI14
aI1
aI2
aI14
aI20
aa(lp1844
I1843
aI67
aI341
aI12
aI0
aI0
aI0
aI1
aI11
aI5
aa(lp1845
I1844
aI118
aI136
aI1
aI3
aI16
aI2
aI2
aI9
aI8
aa(lp1846
I1845
aI82
aI496
aI16
aI0
aI0
aI1
aI1
aI2
aI5
aa(lp1847
I1846
aI67
aI694
aI16
aI3
aI14
aI2
aI2
aI9
aI3
aa(lp1848
I1847
aI66
aI290
aI7
aI1
aI12
aI1
aI1
aI5
aI5
aa(lp1849
I1848
aI46
aI1039
aI9
aI0
aI0
aI0
aI1
aI2
aI5
aa(lp1850
I1849
aI88
aI71
aI12
aI5
aI12
aI0
aI1
aI11
aI5
aa(lp1851
I1850
aI51
aI879
aI6
aI3
aI12
aI1
aI1
aI2
aI5
aa(lp1852
I1851
aI3
aI732
aI16
aI4
aI11
aI1
aI2
aI9
aI3
aa(lp1853
I1852
aI87
aI461
aI4
aI5
aI12
aI0
aI1
aI2
aI5
aa(lp1854
I1853
aI65
aI114
aI19
aI3
aI15
aI2
aI2
aI9
aI8
aa(lp1855
I1854
aI82
aI22
aI18
aI0
aI0
aI1
aI1
aI2
aI5
aa(lp1856
I1855
aI9
aI261
aI13
aI0
aI0
aI1
aI1
aI11
aI5
aa(lp1857
I1856
aI30
aI991
aI16
aI4
aI14
aI1
aI2
aI16
aI41
aa(lp1858
I1857
aI121
aI802
aI13
aI4
aI11
aI1
aI2
aI9
aI3
aa(lp1859
I1858
aI66
aI676
aI12
aI4
aI11
aI1
aI2
aI9
aI3
aa(lp1860
I1859
aI81
aI853
aI1
aI4
aI8
aI2
aI2
aI9
aI8
aa(lp1861
I1860
aI67
aI697
aI14
aI3
aI13
aI2
aI2
aI15
aI25
aa(lp1862
I1861
aI9
aI1093
aI15
aI3
aI16
aI2
aI2
aI15
aI25
aa(lp1863
I1862
aI67
aI937
aI18
aI3
aI14
aI0
aI2
aI15
aI24
aa(lp1864
I1863
aI9
aI485
aI16
aI3
aI12
aI1
aI2
aI16
aI4
aa(lp1865
I1864
aI87
aI680
aI12
aI5
aI12
aI0
aI1
aI11
aI5
aa(lp1866
I1865
aI9
aI250
aI9
aI1
aI14
aI1
aI2
aI16
aI18
aa(lp1867
I1866
aI62
aI116
aI11
aI3
aI12
aI1
aI2
aI14
aI20
aa(lp1868
I1867
aI59
aI436
aI5
aI3
aI11
aI1
aI2
aI4
aI29
aa(lp1869
I1868
aI121
aI41
aI3
aI3
aI13
aI2
aI2
aI15
aI30
aa(lp1870
I1869
aI50
aI863
aI9
aI0
aI0
aI0
aI1
aI2
aI5
aa(lp1871
I1870
aI67
aI662
aI4
aI4
aI14
aI0
aI2
aI9
aI3
aa(lp1872
I1871
aI2
aI989
aI2
aI3
aI16
aI2
aI2
aI9
aI8
aa(lp1873
I1872
aI27
aI1063
aI9
aI0
aI0
aI0
aI1
aI2
aI5
aa(lp1874
I1873
aI9
aI182
aI13
aI5
aI11
aI1
aI2
aI16
aI18
aa(lp1875
I1874
aI37
aI525
aI7
aI4
aI20
aI2
aI2
aI9
aI8
aa(lp1876
I1875
aI67
aI1127
aI13
aI3
aI12
aI0
aI1
aI11
aI5
aa(lp1877
I1876
aI66
aI581
aI18
aI3
aI19
aI2
aI2
aI9
aI8
aa(lp1878
I1877
aI121
aI1075
aI18
aI3
aI15
aI2
aI2
aI15
aI30
aa(lp1879
I1878
aI121
aI851
aI13
aI4
aI11
aI1
aI2
aI14
aI20
aa(lp1880
I1879
aI59
aI891
aI4
aI5
aI12
aI1
aI1
aI2
aI5
aa(lp1881
I1880
aI87
aI73
aI2
aI5
aI13
aI1
aI2
aI6
aI0
aa(lp1882
I1881
aI121
aI408
aI11
aI1
aI14
aI1
aI2
aI10
aI27
aa(lp1883
I1882
aI37
aI998
aI4
aI3
aI19
aI2
aI2
aI9
aI8
aa(lp1884
I1883
aI82
aI63
aI10
aI5
aI13
aI2
aI2
aI10
aI40
aa(lp1885
I1884
aI82
aI990
aI3
aI3
aI17
aI2
aI2
aI9
aI8
aa(lp1886
I1885
aI65
aI77
aI1
aI3
aI15
aI2
aI2
aI9
aI8
aa(lp1887
I1886
aI67
aI358
aI7
aI5
aI12
aI0
aI1
aI2
aI5
aa(lp1888
I1887
aI67
aI694
aI14
aI3
aI15
aI2
aI2
aI15
aI25
aa(lp1889
I1888
aI81
aI67
aI12
aI5
aI12
aI1
aI1
aI11
aI5
aa(lp1890
I1889
aI65
aI916
aI14
aI3
aI12
aI1
aI2
aI9
aI3
aa(lp1891
I1890
aI67
aI1032
aI15
aI5
aI12
aI0
aI1
aI11
aI5
aa(lp1892
I1891
aI121
aI226
aI7
aI2
aI11
aI1
aI2
aI9
aI3
aa(lp1893
I1892
aI9
aI749
aI12
aI3
aI13
aI2
aI2
aI15
aI25
aa(lp1894
I1893
aI30
aI558
aI8
aI1
aI14
aI1
aI2
aI10
aI27
aa(lp1895
I1894
aI65
aI855
aI12
aI5
aI12
aI1
aI1
aI11
aI5
aa(lp1896
I1895
aI81
aI270
aI14
aI4
aI15
aI1
aI2
aI6
aI9
aa(lp1897
I1896
aI9
aI485
aI17
aI3
aI11
aI1
aI2
aI14
aI20
aa(lp1898
I1897
aI88
aI936
aI11
aI3
aI11
aI1
aI2
aI4
aI2
aa(lp1899
I1898
aI9
aI1094
aI1
aI3
aI1
aI2
aI2
aI9
aI8
aa(lp1900
I1899
aI55
aI1083
aI13
aI3
aI11
aI1
aI2
aI9
aI3
aa(lp1901
I1900
aI43
aI323
aI14
aI5
aI12
aI1
aI1
aI11
aI5
aa(lp1902
I1901
aI43
aI1009
aI8
aI0
aI0
aI1
aI1
aI2
aI5
aa(lp1903
I1902
aI9
aI363
aI0
aI3
aI14
aI1
aI2
aI14
aI20
aa(lp1904
I1903
aI27
aI1063
aI5
aI3
aI5
aI2
aI2
aI9
aI8
aa(lp1905
I1904
aI59
aI207
aI11
aI3
aI11
aI1
aI2
aI6
aI9
aa(lp1906
I1905
aI66
aI1007
aI12
aI0
aI0
aI1
aI1
aI11
aI5
aa(lp1907
I1906
aI19
aI736
aI9
aI0
aI0
aI0
aI1
aI2
aI5
aa(lp1908
I1907
aI30
aI706
aI12
aI5
aI12
aI1
aI1
aI11
aI5
aa(lp1909
I1908
aI66
aI1024
aI10
aI1
aI11
aI1
aI2
aI4
aI31
aa(lp1910
I1909
aI66
aI416
aI15
aI3
aI14
aI1
aI2
aI6
aI9
aa(lp1911
I1910
aI65
aI1146
aI17
aI2
aI12
aI0
aI1
aI2
aI5
aa(lp1912
I1911
aI109
aI625
aI10
aI5
aI20
aI2
aI2
aI10
aI40
aa(lp1913
I1912
aI117
aI115
aI3
aI3
aI19
aI2
aI2
aI9
aI8
aa(lp1914
I1913
aI109
aI728
aI0
aI5
aI13
aI2
aI2
aI6
aI0
aa(lp1915
I1914
aI87
aI680
aI16
aI0
aI0
aI1
aI1
aI2
aI5
aa(lp1916
I1915
aI65
aI322
aI1
aI3
aI13
aI1
aI2
aI9
aI3
aa(lp1917
I1916
aI88
aI585
aI12
aI0
aI0
aI0
aI1
aI11
aI5
aa(lp1918
I1917
aI27
aI1063
aI7
aI5
aI14
aI1
aI2
aI6
aI9
aa(lp1919
I1918
aI94
aI967
aI13
aI5
aI13
aI1
aI2
aI14
aI20
aa(lp1920
I1919
aI41
aI820
aI5
aI3
aI15
aI2
aI2
aI9
aI8
aa(lp1921
I1920
aI81
aI57
aI13
aI3
aI12
aI1
aI1
aI11
aI5
aa(lp1922
I1921
aI110
aI34
aI6
aI5
aI12
aI0
aI1
aI2
aI5
aa(lp1923
I1922
aI81
aI932
aI9
aI3
aI12
aI0
aI1
aI2
aI5
aa(lp1924
I1923
aI67
aI643
aI0
aI4
aI13
aI0
aI2
aI6
aI9
aa(lp1925
I1924
aI58
aI342
aI5
aI1
aI19
aI2
aI2
aI9
aI8
aa(lp1926
I1925
aI64
aI87
aI8
aI5
aI12
aI0
aI1
aI2
aI5
aa(lp1927
I1926
aI30
aI332
aI17
aI1
aI15
aI0
aI2
aI4
aI22
aa(lp1928
I1927
aI64
aI340
aI13
aI3
aI11
aI1
aI2
aI14
aI20
aa(lp1929
I1928
aI9
aI629
aI4
aI4
aI10
aI2
aI2
aI9
aI8
aa(lp1930
I1929
aI33
aI364
aI13
aI0
aI0
aI1
aI1
aI11
aI5
aa(lp1931
I1930
aI67
aI993
aI16
aI4
aI14
aI2
aI2
aI9
aI3
aa(lp1932
I1931
aI30
aI1109
aI15
aI2
aI16
aI1
aI2
aI9
aI3
aa(lp1933
I1932
aI82
aI530
aI0
aI0
aI0
aI1
aI1
aI2
aI5
aa(lp1934
I1933
aI65
aI135
aI9
aI3
aI13
aI2
aI2
aI10
aI27
aa(lp1935
I1934
aI83
aI440
aI4
aI4
aI17
aI2
aI2
aI9
aI8
aa(lp1936
I1935
aI89
aI393
aI13
aI3
aI13
aI1
aI2
aI14
aI20
aa(lp1937
I1936
aI67
aI584
aI5
aI4
aI17
aI2
aI2
aI9
aI8
aa(lp1938
I1937
aI94
aI724
aI4
aI0
aI0
aI1
aI1
aI2
aI5
aa(lp1939
I1938
aI87
aI399
aI8
aI4
aI13
aI2
aI2
aI10
aI27
aa(lp1940
I1939
aI65
aI268
aI8
aI5
aI12
aI0
aI1
aI2
aI5
aa(lp1941
I1940
aI90
aI292
aI0
aI4
aI18
aI2
aI2
aI9
aI8
aa(lp1942
I1941
aI87
aI215
aI2
aI5
aI16
aI2
aI2
aI6
aI9
aa(lp1943
I1942
aI40
aI125
aI4
aI3
aI17
aI2
aI2
aI9
aI8
aa(lp1944
I1943
aI66
aI1017
aI13
aI5
aI15
aI1
aI2
aI6
aI0
aa(lp1945
I1944
aI67
aI627
aI7
aI0
aI0
aI0
aI1
aI2
aI5
aa(lp1946
I1945
aI65
aI502
aI17
aI5
aI2
aI2
aI2
aI15
aI30
aa(lp1947
I1946
aI11
aI712
aI8
aI0
aI0
aI1
aI1
aI2
aI5
aa(lp1948
I1947
aI51
aI873
aI13
aI5
aI12
aI0
aI1
aI11
aI5
aa(lp1949
I1948
aI67
aI168
aI6
aI0
aI0
aI1
aI1
aI2
aI5
aa(lp1950
I1949
aI9
aI411
aI0
aI5
aI12
aI1
aI2
aI14
aI20
aa(lp1951
I1950
aI82
aI431
aI8
aI0
aI0
aI0
aI1
aI2
aI5
aa(lp1952
I1951
aI118
aI843
aI4
aI3
aI19
aI2
aI2
aI9
aI8
aa(lp1953
I1952
aI7
aI1102
aI3
aI4
aI14
aI2
aI2
aI15
aI30
aa(lp1954
I1953
aI81
aI335
aI8
aI4
aI11
aI1
aI2
aI10
aI40
aa(lp1955
I1954
aI81
aI746
aI9
aI5
aI12
aI0
aI1
aI2
aI5
aa(lp1956
I1955
aI67
aI185
aI3
aI3
aI20
aI2
aI2
aI9
aI8
aa(lp1957
I1956
aI9
aI631
aI12
aI1
aI12
aI0
aI1
aI11
aI5
aa(lp1958
I1957
aI67
aI554
aI15
aI0
aI0
aI0
aI1
aI11
aI5
aa(lp1959
I1958
aI79
aI445
aI18
aI3
aI13
aI1
aI2
aI14
aI20
aa(lp1960
I1959
aI9
aI773
aI12
aI3
aI14
aI1
aI2
aI14
aI35
aa(lp1961
I1960
aI101
aI556
aI16
aI5
aI19
aI2
aI2
aI15
aI30
aa(lp1962
I1961
aI81
aI36
aI17
aI0
aI0
aI1
aI1
aI2
aI5
aa(lp1963
I1962
aI82
aI449
aI4
aI3
aI13
aI1
aI2
aI14
aI26
aa(lp1964
I1963
aI88
aI585
aI12
aI5
aI12
aI0
aI1
aI11
aI5
aa(lp1965
I1964
aI9
aI405
aI19
aI4
aI12
aI1
aI2
aI9
aI11
aa(lp1966
I1965
aI82
aI496
aI19
aI4
aI13
aI1
aI2
aI14
aI20
aa(lp1967
I1966
aI9
aI378
aI14
aI4
aI11
aI1
aI2
aI16
aI18
aa(lp1968
I1967
aI67
aI1127
aI9
aI5
aI12
aI0
aI1
aI2
aI5
aa(lp1969
I1968
aI67
aI168
aI10
aI3
aI11
aI1
aI2
aI3
aI13
aa(lp1970
I1969
aI67
aI833
aI16
aI3
aI14
aI1
aI2
aI6
aI0
aa(lp1971
I1970
aI64
aI1139
aI6
aI4
aI12
aI1
aI1
aI2
aI5
aa(lp1972
I1971
aI67
aI642
aI17
aI5
aI16
aI1
aI2
aI15
aI25
aa(lp1973
I1972
aI81
aI842
aI5
aI4
aI15
aI2
aI2
aI9
aI8
aa(lp1974
I1973
aI66
aI285
aI19
aI5
aI12
aI0
aI1
aI2
aI5
aa(lp1975
I1974
aI67
aI1127
aI17
aI5
aI13
aI1
aI2
aI15
aI25
aa(lp1976
I1975
aI27
aI418
aI18
aI3
aI18
aI1
aI2
aI6
aI0
aa(lp1977
I1976
aI49
aI819
aI16
aI4
aI13
aI1
aI2
aI16
aI18
aa(lp1978
I1977
aI96
aI774
aI17
aI3
aI13
aI1
aI2
aI9
aI3
aa(lp1979
I1978
aI87
aI680
aI19
aI3
aI14
aI1
aI2
aI6
aI9
aa(lp1980
I1979
aI109
aI462
aI4
aI5
aI13
aI1
aI2
aI9
aI11
aa(lp1981
I1980
aI14
aI1121
aI6
aI5
aI12
aI0
aI1
aI2
aI5
aa(lp1982
I1981
aI96
aI774
aI13
aI4
aI12
aI1
aI2
aI14
aI20
aa(lp1983
I1982
aI47
aI661
aI12
aI4
aI11
aI1
aI2
aI9
aI3
aa(lp1984
I1983
aI85
aI318
aI11
aI5
aI12
aI1
aI2
aI6
aI14
aa(lp1985
I1984
aI9
aI1059
aI16
aI4
aI11
aI1
aI2
aI9
aI3
aa(lp1986
I1985
aI67
aI1036
aI4
aI4
aI6
aI2
aI2
aI9
aI8
aa(lp1987
I1986
aI81
aI60
aI2
aI4
aI20
aI2
aI2
aI9
aI8
aa(lp1988
I1987
aI9
aI850
aI14
aI5
aI13
aI1
aI2
aI15
aI25
aa(lp1989
I1988
aI90
aI559
aI9
aI0
aI0
aI0
aI1
aI2
aI5
aa(lp1990
I1989
aI27
aI870
aI4
aI3
aI14
aI2
aI2
aI9
aI8
aa(lp1991
I1990
aI19
aI550
aI3
aI3
aI19
aI2
aI2
aI9
aI8
aa(lp1992
I1991
aI67
aI1127
aI14
aI5
aI12
aI0
aI1
aI11
aI5
aa(lp1993
I1992
aI112
aI118
aI8
aI0
aI0
aI0
aI1
aI2
aI5
aa(lp1994
I1993
aI96
aI179
aI15
aI3
aI12
aI1
aI2
aI15
aI25
aa(lp1995
I1994
aI67
aI478
aI2
aI3
aI13
aI2
aI2
aI6
aI9
aa(lp1996
I1995
aI82
aI780
aI7
aI0
aI0
aI1
aI1
aI2
aI5
aa(lp1997
I1996
aI41
aI248
aI17
aI3
aI11
aI1
aI2
aI9
aI3
aa(lp1998
I1997
aI67
aI924
aI1
aI1
aI14
aI1
aI2
aI9
aI3
aa(lp1999
I1998
aI37
aI1090
aI11
aI4
aI14
aI1
aI2
aI16
aI4
aa(lp2000
I1999
aI3
aI1134
aI8
aI0
aI0
aI0
aI1
aI2
aI5
aa(lp2001
I2000
aI9
aI378
aI16
aI3
aI14
aI1
aI2
aI16
aI4
aa.